
Discarded input sections

 .data          0x0000000000000000        0x0 arch/arm/cpu/armv8/start.o
 .bss           0x0000000000000000        0x0 arch/arm/cpu/armv8/start.o
 .text.sdelay   0x0000000000000000        0xc arch/arm/cpu/armv8/built-in.o
 .text.timer_read_counter
                0x0000000000000000        0xc arch/arm/cpu/armv8/built-in.o
 .text.usec2ticks
                0x0000000000000000       0x44 arch/arm/cpu/armv8/built-in.o
 .text.timer_get_boot_us
                0x0000000000000000       0x28 arch/arm/cpu/armv8/built-in.o
 .text.set_one_region
                0x0000000000000000       0xd8 arch/arm/cpu/armv8/built-in.o
 .text.arch_get_page_table
                0x0000000000000000       0x20 arch/arm/cpu/armv8/built-in.o
 .text.mmu_set_region_dcache_behaviour
                0x0000000000000000       0xa8 arch/arm/cpu/armv8/built-in.o
 .text.mmu_change_region_attr
                0x0000000000000000       0xe8 arch/arm/cpu/armv8/built-in.o
 .text.enable_caches
                0x0000000000000000       0x14 arch/arm/cpu/armv8/built-in.o
 .text.__asm_switch_ttbr
                0x0000000000000000       0xe0 arch/arm/cpu/armv8/built-in.o
 .text.armv8_switch_to_el1
                0x0000000000000000       0xd0 arch/arm/cpu/armv8/built-in.o
 .text.psci_system_reset
                0x0000000000000000       0x20 arch/arm/cpu/armv8/built-in.o
 .text.psci_system_off
                0x0000000000000000       0x20 arch/arm/cpu/armv8/built-in.o
 .rodata.arch_get_page_table.str1.1
                0x0000000000000000       0x1e arch/arm/cpu/armv8/built-in.o
 .rodata.mmu_set_region_dcache_behaviour.str1.1
                0x0000000000000000       0x20 arch/arm/cpu/armv8/built-in.o
 .rodata.set_one_region.str1.1
                0x0000000000000000       0x2e arch/arm/cpu/armv8/built-in.o
 .eh_frame      0x0000000000000000      0x4fc arch/arm/cpu/armv8/built-in.o
 .data          0x0000000000000000        0x0 arch/arm/cpu/armv8/built-in.o
 .bss           0x0000000000000000        0x0 arch/arm/cpu/armv8/built-in.o
 .text.board_quiesce_devices
                0x0000000000000000        0x4 arch/arm/lib/built-in.o
 .text.armv7_boot_nonsec_default
                0x0000000000000000        0x8 arch/arm/lib/built-in.o
 .text.enable_caches
                0x0000000000000000        0xc arch/arm/lib/built-in.o
 .text.invalidate_dcache_range
                0x0000000000000000        0x4 arch/arm/lib/built-in.o
 .text.flush_dcache_range
                0x0000000000000000        0x4 arch/arm/lib/built-in.o
 .text.flush_dcache_all
                0x0000000000000000        0xc arch/arm/lib/built-in.o
 .text.check_cache_range
                0x0000000000000000       0x3c arch/arm/lib/built-in.o
 .text.fdt_psci
                0x0000000000000000        0x8 arch/arm/lib/built-in.o
 .rodata.check_cache_range.str1.1
                0x0000000000000000       0x35 arch/arm/lib/built-in.o
 .rodata.enable_caches.str1.1
                0x0000000000000000       0x1d arch/arm/lib/built-in.o
 .eh_frame      0x0000000000000000      0x458 arch/arm/lib/built-in.o
 .data          0x0000000000000000        0x0 arch/arm/lib/built-in.o
 .__efi_runtime_rel_start
                0x0000000000000000        0x0 arch/arm/lib/built-in.o
 .__efi_runtime_rel_stop
                0x0000000000000000        0x0 arch/arm/lib/built-in.o
 .__efi_runtime_start
                0x0000000000000000        0x0 arch/arm/lib/built-in.o
 .__efi_runtime_stop
                0x0000000000000000        0x0 arch/arm/lib/built-in.o
 .__end         0x0000000000000000        0x0 arch/arm/lib/built-in.o
 .__secure_end  0x0000000000000000        0x0 arch/arm/lib/built-in.o
 .__secure_stack_end
                0x0000000000000000        0x0 arch/arm/lib/built-in.o
 .__secure_stack_start
                0x0000000000000000        0x0 arch/arm/lib/built-in.o
 .__secure_start
                0x0000000000000000        0x0 arch/arm/lib/built-in.o
 .bss           0x0000000000000000        0x0 arch/arm/lib/built-in.o
 .text.imx_iomux_set_gpr_register
                0x0000000000000000       0x4c arch/arm/mach-imx/built-in.o
 .text.force_idle_bus
                0x0000000000000000      0x1dc arch/arm/mach-imx/built-in.o
 .text.setup_i2c
                0x0000000000000000       0xc8 arch/arm/mach-imx/built-in.o
 .text.cpu_eth_init
                0x0000000000000000        0x4 arch/arm/mach-imx/built-in.o
 .text.cpu_mmc_init
                0x0000000000000000        0x4 arch/arm/mach-imx/built-in.o
 .text.mxs_wait_mask_set
                0x0000000000000000       0x58 arch/arm/mach-imx/built-in.o
 .text.mxs_wait_mask_clr
                0x0000000000000000       0x58 arch/arm/mach-imx/built-in.o
 .text.mxs_reset_block
                0x0000000000000000       0xbc arch/arm/mach-imx/built-in.o
 .text.call_imx_sip_ret2
                0x0000000000000000       0x40 arch/arm/mach-imx/built-in.o
 .text.enable_tzc380
                0x0000000000000000       0x34 arch/arm/mach-imx/built-in.o
 .text.disable_gpu_nodes
                0x0000000000000000       0x28 arch/arm/mach-imx/built-in.o
 .text.mxs_set_lcdclk
                0x0000000000000000        0xc arch/arm/mach-imx/built-in.o
 .text.init_wdog_clk
                0x0000000000000000       0x78 arch/arm/mach-imx/built-in.o
 .text.init_nand_clk
                0x0000000000000000       0x34 arch/arm/mach-imx/built-in.o
 .text.init_uart_clk
                0x0000000000000000       0xc8 arch/arm/mach-imx/built-in.o
 .text.dram_enable_bypass
                0x0000000000000000       0xc0 arch/arm/mach-imx/built-in.o
 .text.dram_disable_bypass
                0x0000000000000000       0x24 arch/arm/mach-imx/built-in.o
 .rodata.__func__.8143
                0x0000000000000000        0xf arch/arm/mach-imx/built-in.o
 .rodata.force_idle_bus.str1.1
                0x0000000000000000       0x53 arch/arm/mach-imx/built-in.o
 .rodata.setup_i2c.str1.1
                0x0000000000000000       0x18 arch/arm/mach-imx/built-in.o
 .rodata.disable_gpu_nodes.str1.1
                0x0000000000000000        0xe arch/arm/mach-imx/built-in.o
 .rodata.init_uart_clk
                0x0000000000000000        0x4 arch/arm/mach-imx/built-in.o
 .rodata.dram_enable_bypass.str1.1
                0x0000000000000000       0x1b arch/arm/mach-imx/built-in.o
 .rodata.imx8mq_dram_bypass_tbl
                0x0000000000000000       0x48 arch/arm/mach-imx/built-in.o
 .rodata.init_uart_clk.str1.1
                0x0000000000000000       0x14 arch/arm/mach-imx/built-in.o
 .eh_frame      0x0000000000000000      0xae8 arch/arm/mach-imx/built-in.o
 .data          0x0000000000000000        0x0 arch/arm/mach-imx/built-in.o
 .bss           0x0000000000000000        0x0 arch/arm/mach-imx/built-in.o
 .text          0x0000000000000000        0x0 board/freescale/common/built-in.o
 .eh_frame      0x0000000000000000       0x4c board/freescale/common/built-in.o
 .data          0x0000000000000000        0x0 board/freescale/common/built-in.o
 .bss           0x0000000000000000        0x0 board/freescale/common/built-in.o
 .text          0x0000000000000000        0x0 board/freescale/imx8mq_evk/built-in.o
 .text.board_qspi_init
                0x0000000000000000       0x18 board/freescale/imx8mq_evk/built-in.o
 .eh_frame      0x0000000000000000      0x140 board/freescale/imx8mq_evk/built-in.o
 .data          0x0000000000000000        0x0 board/freescale/imx8mq_evk/built-in.o
 .bss           0x0000000000000000        0x0 board/freescale/imx8mq_evk/built-in.o
 .text          0x0000000000000000        0x0 cmd/built-in.o
 .text.invalidate_icache_all
                0x0000000000000000        0xc cmd/built-in.o
 .text.flush_dcache_all
                0x0000000000000000        0xc cmd/built-in.o
 .text.name_to_gpio
                0x0000000000000000       0x1c cmd/built-in.o
 .text.i2c_init_board
                0x0000000000000000        0x4 cmd/built-in.o
 .rodata.flush_dcache_all.str1.1
                0x0000000000000000       0x2e cmd/built-in.o
 .rodata.invalidate_icache_all.str1.1
                0x0000000000000000       0x33 cmd/built-in.o
 .eh_frame      0x0000000000000000     0x2a4c cmd/built-in.o
 .data          0x0000000000000000        0x0 cmd/built-in.o
 .bss           0x0000000000000000        0x0 cmd/built-in.o
 .text          0x0000000000000000        0x0 common/built-in.o
 .text.hash_finish_crc32
                0x0000000000000000       0x38 common/built-in.o
 .text.hash_finish_crc16_ccitt
                0x0000000000000000       0x38 common/built-in.o
 .text.hash_update_crc32
                0x0000000000000000       0x34 common/built-in.o
 .text.hash_init_crc32
                0x0000000000000000       0x30 common/built-in.o
 .text.hash_init_crc16_ccitt
                0x0000000000000000       0x30 common/built-in.o
 .text.hash_update_crc16_ccitt
                0x0000000000000000       0x34 common/built-in.o
 .text.hash_finish_sha256
                0x0000000000000000       0x48 common/built-in.o
 .text.hash_update_sha256
                0x0000000000000000       0x24 common/built-in.o
 .text.hash_init_sha256
                0x0000000000000000       0x34 common/built-in.o
 .text.hash_finish_sha1
                0x0000000000000000       0x48 common/built-in.o
 .text.hash_update_sha1
                0x0000000000000000       0x24 common/built-in.o
 .text.hash_init_sha1
                0x0000000000000000       0x34 common/built-in.o
 .text.hash_lookup_algo
                0x0000000000000000       0x74 common/built-in.o
 .text.hash_progressive_lookup_algo
                0x0000000000000000       0x7c common/built-in.o
 .text.hash_parse_string
                0x0000000000000000       0x7c common/built-in.o
 .text.hash_block
                0x0000000000000000       0x88 common/built-in.o
 .text.unset_local_var
                0x0000000000000000       0xbc common/built-in.o
 .text.arch_cpu_init
                0x0000000000000000        0x8 common/built-in.o
 .text.coloured_LED_init
                0x0000000000000000        0x4 common/built-in.o
 .text.red_led_on
                0x0000000000000000        0x4 common/built-in.o
 .text.red_led_off
                0x0000000000000000        0x4 common/built-in.o
 .text.green_led_on
                0x0000000000000000        0x4 common/built-in.o
 .text.green_led_off
                0x0000000000000000        0x4 common/built-in.o
 .text.yellow_led_on
                0x0000000000000000        0x4 common/built-in.o
 .text.yellow_led_off
                0x0000000000000000        0x4 common/built-in.o
 .text.blue_led_on
                0x0000000000000000        0x4 common/built-in.o
 .text.blue_led_off
                0x0000000000000000        0x4 common/built-in.o
 .text.arch_reserve_stacks
                0x0000000000000000        0x8 common/built-in.o
 .text.board_flash_wp_on
                0x0000000000000000        0x8 common/built-in.o
 .text.fixup_cpu
                0x0000000000000000        0x8 common/built-in.o
 .text.board_quiesce_devices
                0x0000000000000000        0x4 common/built-in.o
 .text.switch_to_non_secure_mode
                0x0000000000000000        0x4 common/built-in.o
 .text.arch_preboot_os
                0x0000000000000000        0x4 common/built-in.o
 .text.fdt_read_prop
                0x0000000000000000       0x48 common/built-in.o
 .text.fdt_getprop_u32_default_node
                0x0000000000000000       0x4c common/built-in.o
 .text.fdt_getprop_u32_default
                0x0000000000000000       0x5c common/built-in.o
 .text.do_fixup_by_path_u32
                0x0000000000000000       0x28 common/built-in.o
 .text.do_fixup_by_prop
                0x0000000000000000       0xc8 common/built-in.o
 .text.do_fixup_by_prop_u32
                0x0000000000000000       0x28 common/built-in.o
 .text.do_fixup_by_compat
                0x0000000000000000       0xa8 common/built-in.o
 .text.do_fixup_by_compat_u32
                0x0000000000000000       0x28 common/built-in.o
 .text.fdt_record_loadable
                0x0000000000000000      0x174 common/built-in.o
 .text.fdt_del_node_and_alias
                0x0000000000000000       0x5c common/built-in.o
 .text.fdt_node_offset_by_compat_reg
                0x0000000000000000       0xa0 common/built-in.o
 .text.fdt_alloc_phandle
                0x0000000000000000       0x6c common/built-in.o
 .text.fdt_set_phandle
                0x0000000000000000       0x68 common/built-in.o
 .text.fdt_create_phandle
                0x0000000000000000       0x78 common/built-in.o
 .text.fdt_set_node_status
                0x0000000000000000       0xdc common/built-in.o
 .text.fdt_set_status_by_alias
                0x0000000000000000       0x40 common/built-in.o
 .text.fdt_verify_alias_address
                0x0000000000000000       0xdc common/built-in.o
 .text.fdt_get_base_address
                0x0000000000000000       0x4c common/built-in.o
 .text.fdt_read_range
                0x0000000000000000      0x154 common/built-in.o
 .text.fdt_setup_simplefb_node
                0x0000000000000000      0x1f8 common/built-in.o
 .text.fdt_fixup_display
                0x0000000000000000       0xe8 common/built-in.o
 .text.mdio_register_seq
                0x0000000000000000       0x48 common/built-in.o
 .text.mdio_get_list_head
                0x0000000000000000        0xc common/built-in.o
 .text.usb_submit_int_msg
                0x0000000000000000        0x4 common/built-in.o
 .text.usb_set_protocol
                0x0000000000000000       0x4c common/built-in.o
 .text.usb_set_idle
                0x0000000000000000       0x4c common/built-in.o
 .text.usb_get_report
                0x0000000000000000       0x5c common/built-in.o
 .text.usb_get_class_descriptor
                0x0000000000000000       0x5c common/built-in.o
 .text.board_usb_init
                0x0000000000000000        0x8 common/built-in.o
 .text.board_usb_cleanup
                0x0000000000000000        0x8 common/built-in.o
 .text.usb_find_usb2_hub_address_port
                0x0000000000000000       0x90 common/built-in.o
 .text.usb_hub_probe
                0x0000000000000000       0x54 common/built-in.o
 .text.splash_screen_prepare
                0x0000000000000000        0x8 common/built-in.o
 .text.cli_simple_parse_line
                0x0000000000000000       0x9c common/built-in.o
 .text.cli_simple_process_macros
                0x0000000000000000      0x204 common/built-in.o
 .text.cli_simple_run_command
                0x0000000000000000      0x148 common/built-in.o
 .text.cli_simple_loop
                0x0000000000000000       0x90 common/built-in.o
 .text.cli_simple_run_command_list
                0x0000000000000000       0x74 common/built-in.o
 .text.serial_printf
                0x0000000000000000       0x88 common/built-in.o
 .text.fgetc    0x0000000000000000       0x14 common/built-in.o
 .text.fputc    0x0000000000000000       0x24 common/built-in.o
 .text.fprintf  0x0000000000000000       0x8c common/built-in.o
 .text.console_announce_r
                0x0000000000000000       0x5c common/built-in.o
 .text.valloc   0x0000000000000000        0xc common/built-in.o
 .text.pvalloc  0x0000000000000000       0x10 common/built-in.o
 .text.cfree    0x0000000000000000        0x4 common/built-in.o
 .text.malloc_usable_size
                0x0000000000000000       0x40 common/built-in.o
 .text.mallopt  0x0000000000000000       0x5c common/built-in.o
 .text.memalign_simple
                0x0000000000000000       0x10 common/built-in.o
 .text.malloc_simple_info
                0x0000000000000000        0x4 common/built-in.o
 .text.genimg_get_short_name
                0x0000000000000000       0x28 common/built-in.o
 .text.genimg_get_cat_name
                0x0000000000000000       0x78 common/built-in.o
 .text.genimg_get_cat_short_name
                0x0000000000000000       0x78 common/built-in.o
 .text.genimg_get_cat_count
                0x0000000000000000       0x1c common/built-in.o
 .text.genimg_get_cat_desc
                0x0000000000000000       0x1c common/built-in.o
 .text.genimg_get_type_short_name
                0x0000000000000000       0x10 common/built-in.o
 .text.genimg_get_comp_short_name
                0x0000000000000000       0x10 common/built-in.o
 .text.genimg_get_os_short_name
                0x0000000000000000       0x10 common/built-in.o
 .text.genimg_get_arch_short_name
                0x0000000000000000       0x10 common/built-in.o
 .text.genimg_get_kernel_addr
                0x0000000000000000       0x20 common/built-in.o
 .text.image_arm64
                0x0000000000000000       0x18 common/built-in.o
 .text.arch_fixup_fdt
                0x0000000000000000        0x8 common/built-in.o
 .text.fit_get_subimage_count
                0x0000000000000000       0x5c common/built-in.o
 .text.fit_get_timestamp
                0x0000000000000000       0x5c common/built-in.o
 .text.fit_set_timestamp
                0x0000000000000000       0x44 common/built-in.o
 .text.fit_conf_find_compat
                0x0000000000000000      0x1a8 common/built-in.o
 .text.fit_conf_get_prop_node_count
                0x0000000000000000        0x4 common/built-in.o
 .text.get_ram_size
                0x0000000000000000       0xf8 common/built-in.o
 .text.stdio_init
                0x0000000000000000       0x1c common/built-in.o
 .text.run_command_repeatable
                0x0000000000000000       0x20 common/built-in.o
 .text.cmd_discard_repeatable
                0x0000000000000000       0x1c common/built-in.o
 .rodata.fdt_set_node_status
                0x0000000000000000        0x4 common/built-in.o
 .rodata.__func__.7538
                0x0000000000000000       0x14 common/built-in.o
 .rodata.fdt_create_phandle.str1.1
                0x0000000000000000       0x1a common/built-in.o
 .rodata.fdt_fixup_display.str1.1
                0x0000000000000000       0x1c common/built-in.o
 .rodata.fdt_read_range.str1.1
                0x0000000000000000        0xf common/built-in.o
 .rodata.fdt_record_loadable.str1.1
                0x0000000000000000       0x2e common/built-in.o
 .rodata.fdt_set_node_status.str1.1
                0x0000000000000000       0x3a common/built-in.o
 .rodata.fdt_set_phandle.str1.1
                0x0000000000000000       0x16 common/built-in.o
 .rodata.fdt_setup_simplefb_node.str1.1
                0x0000000000000000       0x2c common/built-in.o
 .rodata.fdt_verify_alias_address.str1.1
                0x0000000000000000       0xcc common/built-in.o
 .rodata.mdio_register_seq.str1.1
                0x0000000000000000        0x6 common/built-in.o
 .rodata.usb_find_usb2_hub_address_port.str1.1
                0x0000000000000000       0x36 common/built-in.o
 .rodata.cli_simple_loop.str1.1
                0x0000000000000000       0x17 common/built-in.o
 .rodata.cli_simple_parse_line.str1.1
                0x0000000000000000       0x1f common/built-in.o
 .rodata.cli_simple_run_command.str1.1
                0x0000000000000000       0x16 common/built-in.o
 .rodata.console_announce_r.str1.1
                0x0000000000000000        0x7 common/built-in.o
 .rodata.mallopt
                0x0000000000000000        0x4 common/built-in.o
 .rodata.genimg_get_short_name.str1.1
                0x0000000000000000        0x8 common/built-in.o
 .rodata.table_info
                0x0000000000000000       0x60 common/built-in.o
 .rodata.unknown_str.7259
                0x0000000000000000        0x9 common/built-in.o
 .rodata.fit_conf_find_compat.str1.1
                0x0000000000000000        0xb common/built-in.o
 .rodata.fit_get_timestamp.str1.1
                0x0000000000000000        0xa common/built-in.o
 .eh_frame      0x0000000000000000     0x42d8 common/built-in.o
 .data          0x0000000000000000        0x0 common/built-in.o
 .data.hash_algo
                0x0000000000000000       0xe0 common/built-in.o
 .bss           0x0000000000000000        0x0 common/built-in.o
 .bss.lastcommand.6635
                0x0000000000000000      0x401 common/built-in.o
 .bss.msg.7260  0x0000000000000000       0x1e common/built-in.o
 .bss.save_addr
                0x0000000000000000        0x8 common/built-in.o
 .bss.save_size
                0x0000000000000000        0x8 common/built-in.o
 .text          0x0000000000000000        0x0 disk/built-in.o
 .text.part_get_info_by_name_type
                0x0000000000000000       0x8c disk/built-in.o
 .text.part_get_info_by_name
                0x0000000000000000        0x8 disk/built-in.o
 .text.is_valid_dos_buf
                0x0000000000000000       0x1c disk/built-in.o
 .text.write_mbr_partition
                0x0000000000000000       0x80 disk/built-in.o
 .text.write_mbr_and_gpt_partitions
                0x0000000000000000      0x46c disk/built-in.o
 .rodata.__func__.6655
                0x0000000000000000       0x14 disk/built-in.o
 .rodata.write_mbr_partition.str1.1
                0x0000000000000000       0x2d disk/built-in.o
 .rodata.__func__.7477
                0x0000000000000000       0x1d disk/built-in.o
 .eh_frame      0x0000000000000000      0x754 disk/built-in.o
 .data          0x0000000000000000        0x0 disk/built-in.o
 .bss           0x0000000000000000        0x0 disk/built-in.o
 .text          0x0000000000000000        0x0 drivers/built-in.o
 .text._device_find_global_by_ofnode
                0x0000000000000000       0x68 drivers/built-in.o
 .text.device_bind_ofnode
                0x0000000000000000       0x10 drivers/built-in.o
 .text.device_get_child
                0x0000000000000000       0x5c drivers/built-in.o
 .text.device_find_child_by_seq
                0x0000000000000000       0x58 drivers/built-in.o
 .text.device_get_child_by_seq
                0x0000000000000000       0x60 drivers/built-in.o
 .text.device_find_child_by_of_offset
                0x0000000000000000       0x44 drivers/built-in.o
 .text.device_get_child_by_of_offset
                0x0000000000000000       0x40 drivers/built-in.o
 .text.device_find_global_by_ofnode
                0x0000000000000000       0x34 drivers/built-in.o
 .text.device_get_global_by_ofnode
                0x0000000000000000       0x48 drivers/built-in.o
 .text.device_find_first_inactive_child
                0x0000000000000000       0x54 drivers/built-in.o
 .text.device_find_first_child_by_uclass
                0x0000000000000000       0x4c drivers/built-in.o
 .text.device_find_child_by_name
                0x0000000000000000       0x68 drivers/built-in.o
 .text.device_has_children
                0x0000000000000000       0x14 drivers/built-in.o
 .text.device_set_name
                0x0000000000000000       0x44 drivers/built-in.o
 .text.device_is_compatible
                0x0000000000000000       0x20 drivers/built-in.o
 .text.of_machine_is_compatible
                0x0000000000000000       0x2c drivers/built-in.o
 .text.dev_disable_by_path
                0x0000000000000000       0x18 drivers/built-in.o
 .text.dev_enable_by_path
                0x0000000000000000       0x1c drivers/built-in.o
 .text.devfdt_get_addr_size_index
                0x0000000000000000       0x48 drivers/built-in.o
 .text.devfdt_get_addr_name
                0x0000000000000000       0x50 drivers/built-in.o
 .text.devfdt_get_addr_ptr
                0x0000000000000000        0x8 drivers/built-in.o
 .text.devfdt_remap_addr_index
                0x0000000000000000       0x20 drivers/built-in.o
 .text.devfdt_remap_addr_name
                0x0000000000000000       0x20 drivers/built-in.o
 .text.devfdt_remap_addr
                0x0000000000000000        0x8 drivers/built-in.o
 .text.devfdt_map_physmem
                0x0000000000000000       0x20 drivers/built-in.o
 .text.dm_fixup_for_gd_move
                0x0000000000000000       0x20 drivers/built-in.o
 .text.dm_set_translation_offset
                0x0000000000000000       0x28 drivers/built-in.o
 .text.dm_uninit
                0x0000000000000000       0x2c drivers/built-in.o
 .text.uclass_destroy
                0x0000000000000000       0x98 drivers/built-in.o
 .text.uclass_get_name
                0x0000000000000000       0x30 drivers/built-in.o
 .text.uclass_get_by_name
                0x0000000000000000       0x54 drivers/built-in.o
 .text.uclass_find_device_by_of_offset
                0x0000000000000000       0x78 drivers/built-in.o
 .text.uclass_get_device_by_driver
                0x0000000000000000       0x7c drivers/built-in.o
 .text.uclass_get_device_by_of_offset
                0x0000000000000000       0x38 drivers/built-in.o
 .text.list_count_items
                0x0000000000000000       0x28 drivers/built-in.o
 .text.dm_fdt_pre_reloc
                0x0000000000000000       0x78 drivers/built-in.o
 .text.simple_bus_translate
                0x0000000000000000       0x50 drivers/built-in.o
 .text.ofnode_read_fmap_entry
                0x0000000000000000      0x104 drivers/built-in.o
 .text.ofnode_decode_region
                0x0000000000000000       0x5c drivers/built-in.o
 .text.ofnode_decode_memory_region
                0x0000000000000000      0x118 drivers/built-in.o
 .text.ofnode_read_s32_default
                0x0000000000000000       0x20 drivers/built-in.o
 .text.ofnode_read_u64
                0x0000000000000000       0x5c drivers/built-in.o
 .text.ofnode_read_u64_default
                0x0000000000000000       0x20 drivers/built-in.o
 .text.ofnode_find_subnode
                0x0000000000000000       0x28 drivers/built-in.o
 .text.ofnode_get_parent
                0x0000000000000000       0x24 drivers/built-in.o
 .text.ofnode_get_by_phandle
                0x0000000000000000       0x24 drivers/built-in.o
 .text.ofnode_read_size
                0x0000000000000000       0x38 drivers/built-in.o
 .text.decode_timing_property
                0x0000000000000000       0x78 drivers/built-in.o
 .text.ofnode_read_string_index
                0x0000000000000000       0x4c drivers/built-in.o
 .text.ofnode_read_string_count
                0x0000000000000000       0x14 drivers/built-in.o
 .text.ofnode_count_phandle_with_args
                0x0000000000000000       0x24 drivers/built-in.o
 .text.ofnode_get_chosen_prop
                0x0000000000000000       0x2c drivers/built-in.o
 .text.ofnode_get_chosen_node
                0x0000000000000000       0x24 drivers/built-in.o
 .text.ofnode_decode_display_timing
                0x0000000000000000      0x2e8 drivers/built-in.o
 .text.ofnode_is_available
                0x0000000000000000       0x28 drivers/built-in.o
 .text.ofnode_get_addr_size
                0x0000000000000000       0x18 drivers/built-in.o
 .text.ofnode_read_u8_array_ptr
                0x0000000000000000       0x18 drivers/built-in.o
 .text.ofnode_read_pci_addr
                0x0000000000000000       0xac drivers/built-in.o
 .text.ofnode_read_pci_vendev
                0x0000000000000000      0x104 drivers/built-in.o
 .text.ofnode_read_addr_cells
                0x0000000000000000       0x10 drivers/built-in.o
 .text.ofnode_read_size_cells
                0x0000000000000000       0x10 drivers/built-in.o
 .text.ofnode_get_addr_index
                0x0000000000000000       0x6c drivers/built-in.o
 .text.ofnode_get_addr
                0x0000000000000000        0x8 drivers/built-in.o
 .text.ofnode_read_simple_addr_cells
                0x0000000000000000        0x4 drivers/built-in.o
 .text.ofnode_read_simple_size_cells
                0x0000000000000000        0x4 drivers/built-in.o
 .text.ofnode_read_resource
                0x0000000000000000       0x6c drivers/built-in.o
 .text.ofnode_read_resource_byname
                0x0000000000000000       0x4c drivers/built-in.o
 .text.ofnode_translate_address
                0x0000000000000000       0x14 drivers/built-in.o
 .text.ofnode_device_is_compatible
                0x0000000000000000       0x2c drivers/built-in.o
 .text.ofnode_by_compatible
                0x0000000000000000       0x28 drivers/built-in.o
 .text.ofnode_by_prop_value
                0x0000000000000000       0x30 drivers/built-in.o
 .text.ofnode_write_prop
                0x0000000000000000        0x8 drivers/built-in.o
 .text.ofnode_write_string
                0x0000000000000000        0x8 drivers/built-in.o
 .text.ofnode_set_enabled
                0x0000000000000000        0x8 drivers/built-in.o
 .text._input_send_keycodes
                0x0000000000000000      0x3fc drivers/built-in.o
 .text.input_tstc
                0x0000000000000000       0x48 drivers/built-in.o
 .text.input_getc
                0x0000000000000000       0x5c drivers/built-in.o
 .text.input_send_keycodes
                0x0000000000000000        0x8 drivers/built-in.o
 .text.input_add_keycode
                0x0000000000000000       0x80 drivers/built-in.o
 .text.input_add_table
                0x0000000000000000       0x38 drivers/built-in.o
 .text.input_set_delays
                0x0000000000000000        0x8 drivers/built-in.o
 .text.input_allow_repeats
                0x0000000000000000        0x8 drivers/built-in.o
 .text.input_leds_changed
                0x0000000000000000       0x18 drivers/built-in.o
 .text.input_add_tables
                0x0000000000000000       0x70 drivers/built-in.o
 .text.input_init
                0x0000000000000000       0x34 drivers/built-in.o
 .text.input_stdio_register
                0x0000000000000000       0x58 drivers/built-in.o
 .text.create_keymap
                0x0000000000000000       0xa0 drivers/built-in.o
 .text.key_matrix_decode
                0x0000000000000000       0xdc drivers/built-in.o
 .text.key_matrix_decode_fdt
                0x0000000000000000       0xb4 drivers/built-in.o
 .text.key_matrix_init
                0x0000000000000000       0x50 drivers/built-in.o
 .text.pinctrl_decode_pin_config
                0x0000000000000000       0x58 drivers/built-in.o
 .text.pinctrl_decode_pin_config_dm
                0x0000000000000000       0x74 drivers/built-in.o
 .text.pinctrl_request
                0x0000000000000000       0x1c drivers/built-in.o
 .text.pinctrl_request_noflags
                0x0000000000000000        0x8 drivers/built-in.o
 .text.pinctrl_get_periph_id
                0x0000000000000000       0x1c drivers/built-in.o
 .text.pinctrl_get_gpio_mux
                0x0000000000000000       0x1c drivers/built-in.o
 .text.pinctrl_generic_set_state_subnode
                0x0000000000000000      0x298 drivers/built-in.o
 .text.pinctrl_generic_set_state
                0x0000000000000000       0x6c drivers/built-in.o
 .text.blk_get_by_device
                0x0000000000000000       0x74 drivers/built-in.o
 .text.blk_unbind_all
                0x0000000000000000       0xa8 drivers/built-in.o
 .text.do_job   0x0000000000000000       0xd0 drivers/built-in.o
 .text.jr_reset
                0x0000000000000000       0xb0 drivers/built-in.o
 .text.secmem_set_cmd_1
                0x0000000000000000       0x20 drivers/built-in.o
 .text.caam_decap_blob
                0x0000000000000000       0xd8 drivers/built-in.o
 .text.caam_gen_blob
                0x0000000000000000       0xf4 drivers/built-in.o
 .text.caam_hwrng
                0x0000000000000000       0xa8 drivers/built-in.o
 .text.caam_open
                0x0000000000000000      0x448 drivers/built-in.o
 .text.fastboot_set_reboot_flag
                0x0000000000000000       0x10 drivers/built-in.o
 .text.fastboot_get_progress_callback
                0x0000000000000000        0xc drivers/built-in.o
 .text.fastboot_set_progress_callback
                0x0000000000000000        0xc drivers/built-in.o
 .text.process_erase_mmc
                0x0000000000000000      0x194 drivers/built-in.o
 .text.read_from_partition_multi
                0x0000000000000000      0x1fc drivers/built-in.o
 .text.fastboot_flash_find_index
                0x0000000000000000       0x44 drivers/built-in.o
 .text.fastboot_flash_get_ptn
                0x0000000000000000       0x24 drivers/built-in.o
 .text.fastboot_flash_get_ptn_count
                0x0000000000000000        0xc drivers/built-in.o
 .text.fuse_bank_physical
                0x0000000000000000        0x4 drivers/built-in.o
 .text.fuse_word_physical
                0x0000000000000000        0x8 drivers/built-in.o
 .text.mmc_voltage_to_mv
                0x0000000000000000       0x20 drivers/built-in.o
 .text.cpu_mmc_init
                0x0000000000000000        0x8 drivers/built-in.o
 .text.board_mmc_init
                0x0000000000000000        0x8 drivers/built-in.o
 .text.mmc_set_preinit
                0x0000000000000000        0x8 drivers/built-in.o
 .text.mmc_of_parse
                0x0000000000000000      0x27c drivers/built-in.o
 .text.mmc_get_next_devnum
                0x0000000000000000        0x8 drivers/built-in.o
 .text.mmc_unbind
                0x0000000000000000       0x34 drivers/built-in.o
 .text.esdhc_status_fixup
                0x0000000000000000        0x8 drivers/built-in.o
 .text.fdt_fixup_esdhc
                0x0000000000000000       0x54 drivers/built-in.o
 .text.init_clk_usdhc
                0x0000000000000000        0x4 drivers/built-in.o
 .text.rtc_to_tm
                0x0000000000000000      0x144 drivers/built-in.o
 .text.reset_cpu
                0x0000000000000000       0x30 drivers/built-in.o
 .text.nxp_tmu_arch_init
                0x0000000000000000        0x4 drivers/built-in.o
 .rodata.devfdt_get_addr_name.str1.1
                0x0000000000000000        0xa drivers/built-in.o
 .rodata.ofnode_decode_memory_region.str1.1
                0x0000000000000000       0x2d drivers/built-in.o
 .rodata.ofnode_read_fmap_entry.str1.1
                0x0000000000000000       0x32 drivers/built-in.o
 .rodata.ofnode_decode_display_timing.str1.1
                0x0000000000000000       0xca drivers/built-in.o
 .rodata.ofnode_get_addr_index.str1.1
                0x0000000000000000        0x4 drivers/built-in.o
 .rodata.ofnode_get_chosen_prop.str1.1
                0x0000000000000000        0x8 drivers/built-in.o
 .rodata.ofnode_read_pci_vendev.str1.1
                0x0000000000000000       0x1c drivers/built-in.o
 .rodata.ofnode_read_resource_byname.str1.1
                0x0000000000000000        0xa drivers/built-in.o
 .rodata.input_stdio_register.str1.1
                0x0000000000000000        0x6 drivers/built-in.o
 .rodata.kbd_plain_xlate
                0x0000000000000000       0x64 drivers/built-in.o
 .rodata.kbd_plain_xlate_german
                0x0000000000000000       0x84 drivers/built-in.o
 .rodata.kbd_to_ansi364
                0x0000000000000000       0x40 drivers/built-in.o
 .rodata.key_matrix_decode_fdt.str1.1
                0x0000000000000000       0x1d drivers/built-in.o
 .rodata.pinctrl_decode_pin_config.str1.1
                0x0000000000000000       0x1c drivers/built-in.o
 .rodata.pinctrl_generic_set_state_subnode.str1.1
                0x0000000000000000       0x15 drivers/built-in.o
 .rodata.caam_decap_blob.str1.1
                0x0000000000000000       0x23 drivers/built-in.o
 .rodata.caam_gen_blob.str1.1
                0x0000000000000000       0x23 drivers/built-in.o
 .rodata.caam_hwrng.str1.1
                0x0000000000000000       0x21 drivers/built-in.o
 .rodata.caam_open.str1.1
                0x0000000000000000      0x113 drivers/built-in.o
 .rodata.jr_reset.str1.1
                0x0000000000000000       0x34 drivers/built-in.o
 .rodata.rng_inst_load_keys
                0x0000000000000000       0x10 drivers/built-in.o
 .rodata.rng_inst_sh0_desc
                0x0000000000000000        0x8 drivers/built-in.o
 .rodata.rng_inst_sh1_desc
                0x0000000000000000       0x10 drivers/built-in.o
 .rodata.process_erase_mmc.str1.1
                0x0000000000000000       0x60 drivers/built-in.o
 .rodata.read_from_partition_multi.str1.1
                0x0000000000000000       0x47 drivers/built-in.o
 .rodata.fastboot_flash_find_index.str1.1
                0x0000000000000000       0x24 drivers/built-in.o
 .rodata.CSWTCH.51
                0x0000000000000000        0xa drivers/built-in.o
 .rodata.mmc_of_parse.str1.1
                0x0000000000000000       0xf2 drivers/built-in.o
 .rodata.rtc_days_in_month
                0x0000000000000000        0xc drivers/built-in.o
 .eh_frame      0x0000000000000000     0x3b14 drivers/built-in.o
 .data          0x0000000000000000        0x0 drivers/built-in.o
 .data.kbd_ctrl_xlate
                0x0000000000000000       0x64 drivers/built-in.o
 .data.kbd_entry
                0x0000000000000000       0xe0 drivers/built-in.o
 .data.kbd_right_alt_xlate_german
                0x0000000000000000       0x58 drivers/built-in.o
 .data.kbd_shift_xlate
                0x0000000000000000       0x64 drivers/built-in.o
 .data.kbd_shift_xlate_german
                0x0000000000000000       0x84 drivers/built-in.o
 .data.g_jrdata
                0x0000000000000000      0x220 drivers/built-in.o
 .data.skeymod  0x0000000000000000       0x10 drivers/built-in.o
 .bss           0x0000000000000000        0x0 drivers/built-in.o
 .text          0x0000000000000000        0x0 drivers/gpio/built-in.o
 .text.gpio_requestf
                0x0000000000000000       0x78 drivers/gpio/built-in.o
 .text.dm_gpio_get_open_drain
                0x0000000000000000       0x5c drivers/gpio/built-in.o
 .text.dm_gpio_set_open_drain
                0x0000000000000000       0x68 drivers/gpio/built-in.o
 .text.dm_gpio_set_dir
                0x0000000000000000        0x8 drivers/gpio/built-in.o
 .text.gpio_set_value
                0x0000000000000000       0x34 drivers/gpio/built-in.o
 .text.gpio_claim_vector
                0x0000000000000000       0xac drivers/gpio/built-in.o
 .text.gpio_get_values_as_int
                0x0000000000000000       0x68 drivers/gpio/built-in.o
 .text.dm_gpio_get_values_as_int
                0x0000000000000000       0x74 drivers/gpio/built-in.o
 .text.gpio_get_list_count
                0x0000000000000000       0x28 drivers/gpio/built-in.o
 .text.gpio_get_number
                0x0000000000000000       0x24 drivers/gpio/built-in.o
 .rodata.dm_gpio_get_open_drain.str1.1
                0x0000000000000000        0xf drivers/gpio/built-in.o
 .rodata.dm_gpio_set_open_drain.str1.1
                0x0000000000000000        0xf drivers/gpio/built-in.o
 .eh_frame      0x0000000000000000      0x7ec drivers/gpio/built-in.o
 .data          0x0000000000000000        0x0 drivers/gpio/built-in.o
 .bss           0x0000000000000000        0x0 drivers/gpio/built-in.o
 .text          0x0000000000000000        0x0 drivers/i2c/built-in.o
 .text.i2c_dump_msgs
                0x0000000000000000       0xac drivers/i2c/built-in.o
 .text.dm_i2c_xfer
                0x0000000000000000       0x4c drivers/i2c/built-in.o
 .text.dm_i2c_reg_read
                0x0000000000000000       0x24 drivers/i2c/built-in.o
 .text.dm_i2c_reg_write
                0x0000000000000000       0x20 drivers/i2c/built-in.o
 .text.i2c_get_chip_for_busnum
                0x0000000000000000       0x68 drivers/i2c/built-in.o
 .rodata.i2c_dump_msgs.str1.1
                0x0000000000000000       0x1b drivers/i2c/built-in.o
 .eh_frame      0x0000000000000000      0x5ec drivers/i2c/built-in.o
 .data          0x0000000000000000        0x0 drivers/i2c/built-in.o
 .bss           0x0000000000000000        0x0 drivers/i2c/built-in.o
 .text          0x0000000000000000        0x0 drivers/mtd/built-in.o
 .text.mtd_check_oob_ops
                0x0000000000000000       0xa8 drivers/mtd/built-in.o
 .text.mtd_ooblayout_ecc
                0x0000000000000000       0x80 drivers/mtd/built-in.o
 .text.mtd_ooblayout_free
                0x0000000000000000       0x80 drivers/mtd/built-in.o
 .text.mtd_ooblayout_find_region
                0x0000000000000000       0xa4 drivers/mtd/built-in.o
 .text.mtd_ooblayout_get_bytes
                0x0000000000000000       0xb0 drivers/mtd/built-in.o
 .text.mtd_ooblayout_set_bytes
                0x0000000000000000       0xb0 drivers/mtd/built-in.o
 .text.idr_remove
                0x0000000000000000       0x1c drivers/mtd/built-in.o
 .text.idr_find
                0x0000000000000000       0x20 drivers/mtd/built-in.o
 .text.idr_get_next
                0x0000000000000000       0x3c drivers/mtd/built-in.o
 .text.idr_alloc
                0x0000000000000000       0x48 drivers/mtd/built-in.o
 .text.__mtd_next_device
                0x0000000000000000       0x24 drivers/mtd/built-in.o
 .text.mtd_dev_list_updated
                0x0000000000000000       0x18 drivers/mtd/built-in.o
 .text.del_mtd_device
                0x0000000000000000       0x78 drivers/mtd/built-in.o
 .text.__get_mtd_device
                0x0000000000000000       0x40 drivers/mtd/built-in.o
 .text.get_mtd_device
                0x0000000000000000       0xa0 drivers/mtd/built-in.o
 .text.get_mtd_device_nm
                0x0000000000000000       0x64 drivers/mtd/built-in.o
 .text.__put_mtd_device
                0x0000000000000000       0x54 drivers/mtd/built-in.o
 .text.put_mtd_device
                0x0000000000000000        0x4 drivers/mtd/built-in.o
 .text.mtd_erase
                0x0000000000000000       0x84 drivers/mtd/built-in.o
 .text.mtd_get_unmapped_area
                0x0000000000000000       0x34 drivers/mtd/built-in.o
 .text.mtd_read
                0x0000000000000000       0xc4 drivers/mtd/built-in.o
 .text.mtd_write
                0x0000000000000000       0xa8 drivers/mtd/built-in.o
 .text.mtd_panic_write
                0x0000000000000000       0x58 drivers/mtd/built-in.o
 .text.mtd_read_oob
                0x0000000000000000       0xac drivers/mtd/built-in.o
 .text.mtd_write_oob
                0x0000000000000000       0x88 drivers/mtd/built-in.o
 .text.mtd_ooblayout_find_eccregion
                0x0000000000000000        0xc drivers/mtd/built-in.o
 .text.mtd_ooblayout_get_eccbytes
                0x0000000000000000        0xc drivers/mtd/built-in.o
 .text.mtd_ooblayout_set_eccbytes
                0x0000000000000000        0xc drivers/mtd/built-in.o
 .text.mtd_ooblayout_get_databytes
                0x0000000000000000        0xc drivers/mtd/built-in.o
 .text.mtd_ooblayout_set_databytes
                0x0000000000000000        0xc drivers/mtd/built-in.o
 .text.mtd_ooblayout_count_freebytes
                0x0000000000000000       0x58 drivers/mtd/built-in.o
 .text.mtd_ooblayout_count_eccbytes
                0x0000000000000000       0x58 drivers/mtd/built-in.o
 .text.mtd_get_fact_prot_info
                0x0000000000000000       0x20 drivers/mtd/built-in.o
 .text.mtd_read_fact_prot_reg
                0x0000000000000000       0x24 drivers/mtd/built-in.o
 .text.mtd_get_user_prot_info
                0x0000000000000000       0x20 drivers/mtd/built-in.o
 .text.mtd_read_user_prot_reg
                0x0000000000000000       0x24 drivers/mtd/built-in.o
 .text.mtd_write_user_prot_reg
                0x0000000000000000       0x58 drivers/mtd/built-in.o
 .text.mtd_lock_user_prot_reg
                0x0000000000000000       0x20 drivers/mtd/built-in.o
 .text.mtd_lock
                0x0000000000000000       0x44 drivers/mtd/built-in.o
 .text.mtd_unlock
                0x0000000000000000       0x44 drivers/mtd/built-in.o
 .text.add_mtd_device
                0x0000000000000000      0x234 drivers/mtd/built-in.o
 .text.mtd_is_locked
                0x0000000000000000       0x44 drivers/mtd/built-in.o
 .text.mtd_block_isreserved
                0x0000000000000000       0x2c drivers/mtd/built-in.o
 .text.mtd_block_isbad
                0x0000000000000000       0x2c drivers/mtd/built-in.o
 .text.mtd_block_markbad
                0x0000000000000000       0x3c drivers/mtd/built-in.o
 .text.mtd_search_alternate_name
                0x0000000000000000      0x10c drivers/mtd/built-in.o
 .text.mtd_probe_devices
                0x0000000000000000        0x8 drivers/mtd/built-in.o
 .rodata.__func__.9508
                0x0000000000000000        0xf drivers/mtd/built-in.o
 .rodata.__func__.9547
                0x0000000000000000       0x11 drivers/mtd/built-in.o
 .rodata.__put_mtd_device.str1.1
                0x0000000000000000       0x2f drivers/mtd/built-in.o
 .rodata.add_mtd_device.str1.1
                0x0000000000000000       0x28 drivers/mtd/built-in.o
 .rodata.del_mtd_device.str1.1
                0x0000000000000000       0x30 drivers/mtd/built-in.o
 .rodata.mtd_search_alternate_name.str1.1
                0x0000000000000000        0x8 drivers/mtd/built-in.o
 .eh_frame      0x0000000000000000      0x660 drivers/mtd/built-in.o
 .data          0x0000000000000000        0x0 drivers/mtd/built-in.o
 .bss           0x0000000000000000        0x0 drivers/mtd/built-in.o
 .bss.mtd_idr   0x0000000000000000      0x408 drivers/mtd/built-in.o
 .bss.mtd_table
                0x0000000000000000      0x100 drivers/mtd/built-in.o
 .text          0x0000000000000000        0x0 drivers/mtd/spi/built-in.o
 .text.spl_flash_get_sw_write_prot
                0x0000000000000000       0x1c drivers/mtd/spi/built-in.o
 .text.spi_flash_free
                0x0000000000000000       0x10 drivers/mtd/spi/built-in.o
 .text.spi_flash_probe
                0x0000000000000000       0x2c drivers/mtd/spi/built-in.o
 .eh_frame      0x0000000000000000      0x5e0 drivers/mtd/spi/built-in.o
 .data          0x0000000000000000        0x0 drivers/mtd/spi/built-in.o
 .bss           0x0000000000000000        0x0 drivers/mtd/spi/built-in.o
 .text          0x0000000000000000        0x0 drivers/net/built-in.o
 .text.init_clk_fec
                0x0000000000000000        0x4 drivers/net/built-in.o
 .eh_frame      0x0000000000000000      0x2c0 drivers/net/built-in.o
 .data          0x0000000000000000        0x0 drivers/net/built-in.o
 .bss           0x0000000000000000        0x0 drivers/net/built-in.o
 .text          0x0000000000000000        0x0 drivers/net/phy/built-in.o
 .text.phy_set_supported
                0x0000000000000000       0x58 drivers/net/phy/built-in.o
 .text.miiphy_reset
                0x0000000000000000       0x30 drivers/net/phy/built-in.o
 .text.board_phy_config
                0x0000000000000000       0x18 drivers/net/phy/built-in.o
 .text.phy_shutdown
                0x0000000000000000       0x2c drivers/net/phy/built-in.o
 .eh_frame      0x0000000000000000      0x3f0 drivers/net/phy/built-in.o
 .data          0x0000000000000000        0x0 drivers/net/phy/built-in.o
 .bss           0x0000000000000000        0x0 drivers/net/phy/built-in.o
 .text          0x0000000000000000        0x0 drivers/power/pmic/built-in.o
 .text.pmic_get
                0x0000000000000000       0x10 drivers/power/pmic/built-in.o
 .text.pmic_reg_count
                0x0000000000000000       0x40 drivers/power/pmic/built-in.o
 .text.pmic_read
                0x0000000000000000       0x70 drivers/power/pmic/built-in.o
 .text.pmic_write
                0x0000000000000000       0x70 drivers/power/pmic/built-in.o
 .text.pmic_reg_read
                0x0000000000000000       0x58 drivers/power/pmic/built-in.o
 .text.pmic_reg_write
                0x0000000000000000       0x50 drivers/power/pmic/built-in.o
 .text.pmic_clrsetbits
                0x0000000000000000       0x94 drivers/power/pmic/built-in.o
 .eh_frame      0x0000000000000000      0x170 drivers/power/pmic/built-in.o
 .data          0x0000000000000000        0x0 drivers/power/pmic/built-in.o
 .bss           0x0000000000000000        0x0 drivers/power/pmic/built-in.o
 .text          0x0000000000000000        0x0 drivers/power/regulator/built-in.o
 .text.regulator_show
                0x0000000000000000       0x9c drivers/power/regulator/built-in.o
 .text.regulator_set_enable_if_allowed
                0x0000000000000000       0x20 drivers/power/regulator/built-in.o
 .text.regulator_get_by_devname
                0x0000000000000000       0x10 drivers/power/regulator/built-in.o
 .text.regulator_autoset
                0x0000000000000000       0x80 drivers/power/regulator/built-in.o
 .text.regulator_autoset_by_name
                0x0000000000000000       0x3c drivers/power/regulator/built-in.o
 .text.regulator_list_autoset
                0x0000000000000000       0xa0 drivers/power/regulator/built-in.o
 .text.regulators_enable_boot_on
                0x0000000000000000       0x8c drivers/power/regulator/built-in.o
 .rodata.regulator_show.str1.1
                0x0000000000000000       0x36 drivers/power/regulator/built-in.o
 .eh_frame      0x0000000000000000      0x508 drivers/power/regulator/built-in.o
 .data          0x0000000000000000        0x0 drivers/power/regulator/built-in.o
 .bss           0x0000000000000000        0x0 drivers/power/regulator/built-in.o
 .text          0x0000000000000000        0x0 drivers/serial/built-in.o
 .text.serial_reinit_all
                0x0000000000000000       0x34 drivers/serial/built-in.o
 .eh_frame      0x0000000000000000      0x358 drivers/serial/built-in.o
 .data          0x0000000000000000        0x0 drivers/serial/built-in.o
 .bss           0x0000000000000000        0x0 drivers/serial/built-in.o
 .text          0x0000000000000000        0x0 drivers/spi/built-in.o
 .text.spi_chip_select
                0x0000000000000000       0x24 drivers/spi/built-in.o
 .text.spi_cs_info
                0x0000000000000000       0x78 drivers/spi/built-in.o
 .text.spi_cs_is_valid
                0x0000000000000000       0x44 drivers/spi/built-in.o
 .text.spi_setup_slave
                0x0000000000000000       0x30 drivers/spi/built-in.o
 .text.spi_free_slave
                0x0000000000000000       0x2c drivers/spi/built-in.o
 .eh_frame      0x0000000000000000      0x59c drivers/spi/built-in.o
 .data          0x0000000000000000        0x0 drivers/spi/built-in.o
 .bss           0x0000000000000000        0x0 drivers/spi/built-in.o
 .text          0x0000000000000000        0x0 drivers/usb/common/built-in.o
 .text.usb_get_maximum_speed
                0x0000000000000000       0x8c drivers/usb/common/built-in.o
 .rodata.speed_names
                0x0000000000000000       0x30 drivers/usb/common/built-in.o
 .rodata.usb_get_maximum_speed.str1.1
                0x0000000000000000       0x2b drivers/usb/common/built-in.o
 .eh_frame      0x0000000000000000       0x6c drivers/usb/common/built-in.o
 .data          0x0000000000000000        0x0 drivers/usb/common/built-in.o
 .bss           0x0000000000000000        0x0 drivers/usb/common/built-in.o
 .text          0x0000000000000000        0x0 drivers/usb/dwc3/built-in.o
 .text.dwc3_gadget_get_link_state
                0x0000000000000000       0x14 drivers/usb/dwc3/built-in.o
 .eh_frame      0x0000000000000000      0x97c drivers/usb/dwc3/built-in.o
 .data          0x0000000000000000        0x0 drivers/usb/dwc3/built-in.o
 .bss           0x0000000000000000        0x0 drivers/usb/dwc3/built-in.o
 .text          0x0000000000000000        0x0 drivers/usb/gadget/built-in.o
 .text.usb_gadget_config_buf
                0x0000000000000000       0xa4 drivers/usb/gadget/built-in.o
 .text.usb_function_deactivate
                0x0000000000000000       0x60 drivers/usb/gadget/built-in.o
 .text.usb_function_activate
                0x0000000000000000       0x4c drivers/usb/gadget/built-in.o
 .text.usb_string_ids_tab
                0x0000000000000000       0x38 drivers/usb/gadget/built-in.o
 .text.usb_string_ids_n
                0x0000000000000000       0x2c drivers/usb/gadget/built-in.o
 .text.board_usb_init
                0x0000000000000000        0x8 drivers/usb/gadget/built-in.o
 .text.board_usb_cleanup
                0x0000000000000000        0x8 drivers/usb/gadget/built-in.o
 .eh_frame      0x0000000000000000      0xd4c drivers/usb/gadget/built-in.o
 .data          0x0000000000000000        0x0 drivers/usb/gadget/built-in.o
 .bss           0x0000000000000000        0x0 drivers/usb/gadget/built-in.o
 .text          0x0000000000000000        0x0 drivers/usb/gadget/udc/built-in.o
 .eh_frame      0x0000000000000000      0x17c drivers/usb/gadget/udc/built-in.o
 .data          0x0000000000000000        0x0 drivers/usb/gadget/udc/built-in.o
 .bss           0x0000000000000000        0x0 drivers/usb/gadget/udc/built-in.o
 .text          0x0000000000000000        0x0 drivers/usb/host/built-in.o
 .text.create_int_queue
                0x0000000000000000       0x3c drivers/usb/host/built-in.o
 .text.poll_int_queue
                0x0000000000000000       0x2c drivers/usb/host/built-in.o
 .text.destroy_int_queue
                0x0000000000000000       0x2c drivers/usb/host/built-in.o
 .text.usb_setup_ehci_gadget
                0x0000000000000000       0x7c drivers/usb/host/built-in.o
 .text.usb_remove_ehci_gadget
                0x0000000000000000       0x48 drivers/usb/host/built-in.o
 .text.usb_detect_change
                0x0000000000000000       0xa8 drivers/usb/host/built-in.o
 .eh_frame      0x0000000000000000      0xb80 drivers/usb/host/built-in.o
 .data          0x0000000000000000        0x0 drivers/usb/host/built-in.o
 .bss           0x0000000000000000        0x0 drivers/usb/host/built-in.o
 .text          0x0000000000000000        0x0 env/built-in.o
 .text.env_flags_parse_varaccess_from_binflags
                0x0000000000000000       0x60 env/built-in.o
 .text.mmc_get_env_dev
                0x0000000000000000        0x8 env/built-in.o
 .rodata.env_flags_parse_varaccess_from_binflags.str1.1
                0x0000000000000000       0x2c env/built-in.o
 .eh_frame      0x0000000000000000      0x610 env/built-in.o
 .data          0x0000000000000000        0x0 env/built-in.o
 .bss           0x0000000000000000        0x0 env/built-in.o
 .text          0x0000000000000000        0x0 fs/built-in.o
 .text.fs_get_type_name
                0x0000000000000000       0x20 fs/built-in.o
 .text.fs_uuid  0x0000000000000000       0x28 fs/built-in.o
 .text.do_fs_uuid
                0x0000000000000000       0xa0 fs/built-in.o
 .text.do_fs_type
                0x0000000000000000       0x90 fs/built-in.o
 .text.print_revoke_blks
                0x0000000000000000       0x70 fs/built-in.o
 .text.fat_register_device
                0x0000000000000000       0x80 fs/built-in.o
 .text.file_fat_read
                0x0000000000000000       0x2c fs/built-in.o
 .rodata.do_fs_uuid.str1.1
                0x0000000000000000        0x4 fs/built-in.o
 .rodata.print_revoke_blks.str1.1
                0x0000000000000000       0x25 fs/built-in.o
 .rodata.fat_register_device.str1.1
                0x0000000000000000       0x2b fs/built-in.o
 .eh_frame      0x0000000000000000     0x1874 fs/built-in.o
 .data          0x0000000000000000        0x0 fs/built-in.o
 .bss           0x0000000000000000        0x0 fs/built-in.o
 .bss.ext4fs_symlinknest
                0x0000000000000000        0x4 fs/built-in.o
 .text          0x0000000000000000        0x0 lib/built-in.o
 .text.efi_serialize_load_option
                0x0000000000000000       0xdc lib/built-in.o
 .text.indent_string
                0x0000000000000000       0x40 lib/built-in.o
 .text.__efi_nesting
                0x0000000000000000        0xc lib/built-in.o
 .text.__efi_nesting_inc
                0x0000000000000000       0x14 lib/built-in.o
 .text.__efi_nesting_dec
                0x0000000000000000       0x14 lib/built-in.o
 .text.efi_dp_from_dev
                0x0000000000000000       0x50 lib/built-in.o
 .text.efi_hii_packagelist_exists
                0x0000000000000000       0x38 lib/built-in.o
 .text.efi_hii_package_len
                0x0000000000000000       0x18 lib/built-in.o
 .text.get_package_list_handle
                0x0000000000000000       0x7c lib/built-in.o
 .text.unregister_package_notify
                0x0000000000000000       0x20 lib/built-in.o
 .text.register_package_notify
                0x0000000000000000       0x64 lib/built-in.o
 .text.export_package_lists
                0x0000000000000000       0x48 lib/built-in.o
 .text.list_package_lists
                0x0000000000000000      0x11c lib/built-in.o
 .text.find_keyboard_layouts
                0x0000000000000000       0xdc lib/built-in.o
 .text.get_keyboard_layout
                0x0000000000000000       0xe4 lib/built-in.o
 .text.remove_guid_package
                0x0000000000000000       0x40 lib/built-in.o
 .text.free_keyboard_layouts
                0x0000000000000000       0x50 lib/built-in.o
 .text.remove_keyboard_package
                0x0000000000000000       0x4c lib/built-in.o
 .text.add_packages
                0x0000000000000000      0x39c lib/built-in.o
 .text.language_match
                0x0000000000000000       0x60 lib/built-in.o
 .text.get_secondary_languages
                0x0000000000000000       0xa0 lib/built-in.o
 .text.get_string
                0x0000000000000000       0xf0 lib/built-in.o
 .text.get_languages
                0x0000000000000000      0x108 lib/built-in.o
 .text.set_string
                0x0000000000000000      0x140 lib/built-in.o
 .text.new_string
                0x0000000000000000      0x130 lib/built-in.o
 .text.remove_strings_package
                0x0000000000000000       0x7c lib/built-in.o
 .text.free_packagelist
                0x0000000000000000       0x44 lib/built-in.o
 .text.remove_package_list
                0x0000000000000000       0x50 lib/built-in.o
 .text.new_package_list
                0x0000000000000000       0xd4 lib/built-in.o
 .text.set_keyboard_layout
                0x0000000000000000       0x20 lib/built-in.o
 .text.update_package_list
                0x0000000000000000      0x114 lib/built-in.o
 .text.form_callback
                0x0000000000000000       0x1c lib/built-in.o
 .text.get_alt_config
                0x0000000000000000       0x20 lib/built-in.o
 .text.config_to_block
                0x0000000000000000       0x20 lib/built-in.o
 .text.block_to_config
                0x0000000000000000       0x20 lib/built-in.o
 .text.route_config
                0x0000000000000000       0x20 lib/built-in.o
 .text.export_config
                0x0000000000000000       0x20 lib/built-in.o
 .text.extract_config
                0x0000000000000000       0x20 lib/built-in.o
 .text.extract_config_access
                0x0000000000000000       0x20 lib/built-in.o
 .text.route_config_access
                0x0000000000000000       0x20 lib/built-in.o
 .text.efi_print_image_infos
                0x0000000000000000      0x100 lib/built-in.o
 .text.invalidate_icache_all
                0x0000000000000000        0x4 lib/built-in.o
 .text.efi_add_runtime_mmio
                0x0000000000000000       0x90 lib/built-in.o
 .text.LzmaDec_InitDicAndState
                0x0000000000000000       0x28 lib/built-in.o
 .text.LzmaDec_DecodeToBuf
                0x0000000000000000      0x124 lib/built-in.o
 .text.LzmaDec_Free
                0x0000000000000000       0x38 lib/built-in.o
 .text.LzmaDec_Allocate
                0x0000000000000000       0xbc lib/built-in.o
 .text.fdt_setprop_inplace_namelen_partial
                0x0000000000000000       0x6c lib/built-in.o
 .text.fdt_setprop_inplace
                0x0000000000000000       0x8c lib/built-in.o
 .text.fdt_nop_property
                0x0000000000000000       0x48 lib/built-in.o
 .text.fdt_nop_node
                0x0000000000000000       0x68 lib/built-in.o
 .text.fdt_sw_check_header_
                0x0000000000000000       0x1c lib/built-in.o
 .text.fdt_grab_space_
                0x0000000000000000       0x58 lib/built-in.o
 .text.fdt_create
                0x0000000000000000       0x70 lib/built-in.o
 .text.fdt_resize
                0x0000000000000000       0xe0 lib/built-in.o
 .text.fdt_add_reservemap_entry
                0x0000000000000000       0x74 lib/built-in.o
 .text.fdt_finish_reservemap
                0x0000000000000000        0xc lib/built-in.o
 .text.fdt_begin_node
                0x0000000000000000       0x84 lib/built-in.o
 .text.fdt_end_node
                0x0000000000000000       0x44 lib/built-in.o
 .text.fdt_property_placeholder
                0x0000000000000000      0x124 lib/built-in.o
 .text.fdt_property
                0x0000000000000000       0x50 lib/built-in.o
 .text.fdt_finish
                0x0000000000000000      0x10c lib/built-in.o
 .text.fdt_set_name
                0x0000000000000000       0xac lib/built-in.o
 .text.fdt_appendprop
                0x0000000000000000       0xf0 lib/built-in.o
 .text.fdt_pack
                0x0000000000000000       0x6c lib/built-in.o
 .text.fdt_create_empty_tree
                0x0000000000000000       0x78 lib/built-in.o
 .text.fdt_get_max_phandle
                0x0000000000000000       0x80 lib/built-in.o
 .text.fdt_get_alias
                0x0000000000000000       0x34 lib/built-in.o
 .text.fdt_get_path
                0x0000000000000000      0x168 lib/built-in.o
 .text.fdt_node_offset_by_prop_value
                0x0000000000000000       0xb4 lib/built-in.o
 .text.fdt_stringlist_contains
                0x0000000000000000       0x98 lib/built-in.o
 .text.fdt_node_check_compatible
                0x0000000000000000       0x4c lib/built-in.o
 .text.fdt_node_offset_by_compatible
                0x0000000000000000       0x84 lib/built-in.o
 .text.fdt_add_region
                0x0000000000000000       0x78 lib/built-in.o
 .text.fdt_find_regions
                0x0000000000000000      0x358 lib/built-in.o
 .text.fdt_add_alias_regions
                0x0000000000000000      0x1b0 lib/built-in.o
 .text.fdt_next_region
                0x0000000000000000      0x4d8 lib/built-in.o
 .text.fdt_first_region
                0x0000000000000000       0x30 lib/built-in.o
 .text.u16_strnlen
                0x0000000000000000       0x24 lib/built-in.o
 .text.u16_strcpy
                0x0000000000000000       0x18 lib/built-in.o
 .text.u16_strdup
                0x0000000000000000       0x50 lib/built-in.o
 .text.crc7     0x0000000000000000       0x30 lib/built-in.o
 .text.crc8     0x0000000000000000       0x48 lib/built-in.o
 .text.crc16_ccitt_wd_buf
                0x0000000000000000       0x3c lib/built-in.o
 .text.fdtdec_get_uint
                0x0000000000000000       0x40 lib/built-in.o
 .text.ldiv     0x0000000000000000       0x2c lib/built-in.o
 .text.byteReverse
                0x0000000000000000        0x4 lib/built-in.o
 .text.md5      0x0000000000000000       0x64 lib/built-in.o
 .text.rc4_encode
                0x0000000000000000       0xe0 lib/built-in.o
 .text.sha1_csum
                0x0000000000000000       0x48 lib/built-in.o
 .text.sha1_hmac
                0x0000000000000000      0x144 lib/built-in.o
 .text.sha1_self_test
                0x0000000000000000        0x8 lib/built-in.o
 .text.sha256_hmac
                0x0000000000000000      0x144 lib/built-in.o
 .text.inflateInit_
                0x0000000000000000       0x10 lib/built-in.o
 .text.fdtdec_get_compatible
                0x0000000000000000       0x10 lib/built-in.o
 .text.fdtdec_get_uint64
                0x0000000000000000       0x40 lib/built-in.o
 .text.get_next_memory_node
                0x0000000000000000       0x68 lib/built-in.o
 .text.fdtdec_lookup
                0x0000000000000000       0x68 lib/built-in.o
 .text.fdtdec_next_compatible
                0x0000000000000000       0x10 lib/built-in.o
 .text.fdtdec_next_compatible_subnode
                0x0000000000000000       0x7c lib/built-in.o
 .text.fdtdec_next_alias
                0x0000000000000000       0xac lib/built-in.o
 .text.fdtdec_add_aliases_for_id
                0x0000000000000000      0x254 lib/built-in.o
 .text.fdtdec_find_aliases_for_id
                0x0000000000000000       0x60 lib/built-in.o
 .text.fdtdec_get_chosen_prop
                0x0000000000000000       0x44 lib/built-in.o
 .text.fdtdec_get_chosen_node
                0x0000000000000000       0x3c lib/built-in.o
 .text.fdtdec_check_fdt
                0x0000000000000000       0x18 lib/built-in.o
 .text.decode_timing_property
                0x0000000000000000       0x8c lib/built-in.o
 .text.fdtdec_locate_array
                0x0000000000000000       0x28 lib/built-in.o
 .text.fdtdec_get_child_count
                0x0000000000000000       0x40 lib/built-in.o
 .text.fdtdec_get_byte_array
                0x0000000000000000       0x48 lib/built-in.o
 .text.fdtdec_locate_byte_array
                0x0000000000000000       0x24 lib/built-in.o
 .text.fdtdec_get_config_bool
                0x0000000000000000       0x54 lib/built-in.o
 .text.fdtdec_get_addr_size_auto_parent
                0x0000000000000000       0xa8 lib/built-in.o
 .text.fdtdec_get_addr_size_auto_noparent
                0x0000000000000000       0x7c lib/built-in.o
 .text.fdtdec_decode_display_timing
                0x0000000000000000      0x304 lib/built-in.o
 .text.fdtdec_setup_mem_size_base
                0x0000000000000000       0x60 lib/built-in.o
 .text.fdtdec_setup_memory_banksize
                0x0000000000000000       0xfc lib/built-in.o
 .text.fdtdec_decode_ram_size
                0x0000000000000000      0x26c lib/built-in.o
 .text.print_freq
                0x0000000000000000      0x138 lib/built-in.o
 .text.crc32_wd_buf
                0x0000000000000000       0x3c lib/built-in.o
 .text.iter_div_u64_rem
                0x0000000000000000       0x28 lib/built-in.o
 .text.copy_from_user
                0x0000000000000000       0x18 lib/built-in.o
 .text.get_mem  0x0000000000000000       0x2c lib/built-in.o
 .text.kmem_cache_alloc
                0x0000000000000000       0x14 lib/built-in.o
 .text.lmb_init
                0x0000000000000000        0xc lib/built-in.o
 .text.lmb_is_reserved
                0x0000000000000000       0x4c lib/built-in.o
 .text.board_lmb_reserve
                0x0000000000000000        0x4 lib/built-in.o
 .text.arch_lmb_reserve
                0x0000000000000000        0x4 lib/built-in.o
 .text.membuff_purge
                0x0000000000000000        0xc lib/built-in.o
 .text.membuff_putraw
                0x0000000000000000       0xb4 lib/built-in.o
 .text.membuff_putbyte
                0x0000000000000000       0x3c lib/built-in.o
 .text.membuff_getraw
                0x0000000000000000       0x80 lib/built-in.o
 .text.membuff_getbyte
                0x0000000000000000       0x3c lib/built-in.o
 .text.membuff_peekbyte
                0x0000000000000000       0x3c lib/built-in.o
 .text.membuff_get
                0x0000000000000000       0x90 lib/built-in.o
 .text.membuff_put
                0x0000000000000000       0x88 lib/built-in.o
 .text.membuff_isempty
                0x0000000000000000       0x10 lib/built-in.o
 .text.membuff_avail
                0x0000000000000000       0x54 lib/built-in.o
 .text.membuff_size
                0x0000000000000000       0x10 lib/built-in.o
 .text.membuff_makecontig
                0x0000000000000000       0xa4 lib/built-in.o
 .text.membuff_free
                0x0000000000000000       0x3c lib/built-in.o
 .text.membuff_readline
                0x0000000000000000       0xa4 lib/built-in.o
 .text.membuff_extend_by
                0x0000000000000000       0xe0 lib/built-in.o
 .text.membuff_init
                0x0000000000000000       0x10 lib/built-in.o
 .text.membuff_new
                0x0000000000000000       0x48 lib/built-in.o
 .text.membuff_uninit
                0x0000000000000000        0xc lib/built-in.o
 .text.membuff_dispose
                0x0000000000000000       0x28 lib/built-in.o
 .text.strchrnul
                0x0000000000000000       0x20 lib/built-in.o
 .text.strcspn  0x0000000000000000       0x38 lib/built-in.o
 .text.strswab  0x0000000000000000       0x3c lib/built-in.o
 .text.memscan  0x0000000000000000       0x24 lib/built-in.o
 .text.memchr_inv
                0x0000000000000000       0xe4 lib/built-in.o
 .text.table_compute_checksum
                0x0000000000000000       0x2c lib/built-in.o
 .text.get_ticks
                0x0000000000000000       0x44 lib/built-in.o
 .text.timer_init
                0x0000000000000000        0x8 lib/built-in.o
 .text.print_hex_dump_bytes
                0x0000000000000000       0x18 lib/built-in.o
 .text.srand    0x0000000000000000        0xc lib/built-in.o
 .text.panic_str
                0x0000000000000000       0x10 lib/built-in.o
 .text.__assert_fail
                0x0000000000000000       0x18 lib/built-in.o
 .text.scnprintf
                0x0000000000000000       0x50 lib/built-in.o
 .text.print_grouped_ull
                0x0000000000000000       0x90 lib/built-in.o
 .text.str2long
                0x0000000000000000       0x50 lib/built-in.o
 .text.strmhz   0x0000000000000000       0x6c lib/built-in.o
 .rodata.efi_guid_event_group_memory_map_change
                0x0000000000000000       0x10 lib/built-in.o
 .rodata.efi_guid_event_group_ready_to_boot
                0x0000000000000000       0x10 lib/built-in.o
 .rodata.efi_guid_event_group_virtual_address_change
                0x0000000000000000       0x10 lib/built-in.o
 .rodata.indent_string.str1.1
                0x0000000000000000       0x15 lib/built-in.o
 .rodata.list_package_lists
                0x0000000000000000        0xb lib/built-in.o
 .rodata.efi_guid_hii_database_protocol
                0x0000000000000000       0x10 lib/built-in.o
 .rodata.efi_guid_hii_string_protocol
                0x0000000000000000       0x10 lib/built-in.o
 .rodata.efi_hii_database
                0x0000000000000000       0x58 lib/built-in.o
 .rodata.efi_hii_string
                0x0000000000000000       0x28 lib/built-in.o
 .rodata.efi_guid_hii_config_access_protocol
                0x0000000000000000       0x10 lib/built-in.o
 .rodata.efi_guid_hii_config_routing_protocol
                0x0000000000000000       0x10 lib/built-in.o
 .rodata.efi_hii_config_access
                0x0000000000000000       0x18 lib/built-in.o
 .rodata.efi_hii_config_routing
                0x0000000000000000       0x30 lib/built-in.o
 .rodata.efi_print_image_infos.str1.1
                0x0000000000000000       0x2b lib/built-in.o
 .rodata.efi_u_boot_guid
                0x0000000000000000       0x10 lib/built-in.o
 .rodata.fdt_create_empty_tree.str1.1
                0x0000000000000000        0x1 lib/built-in.o
 .rodata.fdt_node_check_compatible.str1.1
                0x0000000000000000        0xb lib/built-in.o
 .rodata.fdt_find_regions
                0x0000000000000000       0x12 lib/built-in.o
 .rodata.fdt_next_region
                0x0000000000000000       0x12 lib/built-in.o
 .rodata.fdt_add_alias_regions.str1.1
                0x0000000000000000        0x8 lib/built-in.o
 .rodata.crc7_syndrome_table
                0x0000000000000000      0x100 lib/built-in.o
 .rodata.sha1_der_prefix
                0x0000000000000000        0xf lib/built-in.o
 .rodata.sha256_der_prefix
                0x0000000000000000       0x13 lib/built-in.o
 .rodata.z_errmsg
                0x0000000000000000       0x50 lib/built-in.o
 .rodata.compat_names
                0x0000000000000000      0x118 lib/built-in.o
 .rodata.fdtdec_decode_display_timing.str1.1
                0x0000000000000000       0xca lib/built-in.o
 .rodata.fdtdec_decode_ram_size.str1.1
                0x0000000000000000       0x21 lib/built-in.o
 .rodata.fdtdec_get_chosen_prop.str1.1
                0x0000000000000000        0x8 lib/built-in.o
 .rodata.fdtdec_next_alias.str1.1
                0x0000000000000000        0x7 lib/built-in.o
 .rodata.fdtdec_setup_mem_size_base.str1.1
                0x0000000000000000        0xc lib/built-in.o
 .rodata.get_next_memory_node.str1.1
                0x0000000000000000       0x13 lib/built-in.o
 .rodata.names.6709
                0x0000000000000000        0x3 lib/built-in.o
 .rodata.hex_asc_upper
                0x0000000000000000       0x11 lib/built-in.o
 .rodata.__assert_fail.str1.1
                0x0000000000000000       0x22 lib/built-in.o
 .rodata.print_grouped_ull.str1.1
                0x0000000000000000        0xb lib/built-in.o
 .rodata.strmhz.str1.1
                0x0000000000000000        0xb lib/built-in.o
 .eh_frame      0x0000000000000000     0x6b90 lib/built-in.o
 .data          0x0000000000000000        0x0 lib/built-in.o
 .data.efi_keyboard_layout_list
                0x0000000000000000       0x10 lib/built-in.o
 .data.efi_package_lists
                0x0000000000000000       0x10 lib/built-in.o
 .data.cur      0x0000000000000000        0x4 lib/built-in.o
 .data.current  0x0000000000000000        0x8 lib/built-in.o
 .bss           0x0000000000000000        0x0 lib/built-in.o
 .bss.nesting_level
                0x0000000000000000        0x4 lib/built-in.o
 .text          0x0000000000000000        0x0 net/built-in.o
 .text.add_ip_checksums
                0x0000000000000000       0x40 net/built-in.o
 .text.eth_init_state_only
                0x0000000000000000       0x38 net/built-in.o
 .text.net_get_udp_handler
                0x0000000000000000        0xc net/built-in.o
 .text.net_set_arp_handler
                0x0000000000000000       0x18 net/built-in.o
 .text.random_port
                0x0000000000000000       0x20 net/built-in.o
 .text.vlan_to_string
                0x0000000000000000       0x44 net/built-in.o
 .text.env_get_vlan
                0x0000000000000000       0x14 net/built-in.o
 .rodata.vlan_to_string.str1.1
                0x0000000000000000        0x8 net/built-in.o
 .eh_frame      0x0000000000000000     0x11a4 net/built-in.o
 .data          0x0000000000000000        0x0 net/built-in.o
 .data.tftp_timeout_ms
                0x0000000000000000        0x8 net/built-in.o
 .bss           0x0000000000000000        0x0 net/built-in.o
 .bss.net_busy_flag
                0x0000000000000000        0x4 net/built-in.o

Memory Configuration

Name             Origin             Length             Attributes
*default*        0x0000000000000000 0xffffffffffffffff

Linker script and memory map

Address of section .text set to 0x40200000
                0x0000000000000000                . = 0x0
                0x0000000000000000                . = ALIGN (0x8)

.text           0x0000000040200000      0x114
 *(.__image_copy_start)
 .__image_copy_start
                0x0000000040200000        0x0 arch/arm/lib/built-in.o
                0x0000000040200000                __image_copy_start
 arch/arm/cpu/armv8/start.o(.text*)
 .text          0x0000000040200000      0x114 arch/arm/cpu/armv8/start.o
                0x0000000040200000                _start
                0x0000000040200008                _TEXT_BASE
                0x0000000040200010                _end_ofs
                0x0000000040200018                _bss_start_ofs
                0x0000000040200020                _bss_end_ofs
                0x000000004020002c                save_boot_params_ret
                0x000000004020008c                apply_core_errata
                0x00000000402000d4                smp_kick_all_cpus
                0x00000000402000d8                c_runtime_cpu_setup

.efi_runtime    0x0000000040200118      0x8a8
                0x0000000040200118                __efi_runtime_start = .
 *(.text.efi_runtime*)
 .text.efi_runtime
                0x0000000040200118      0x164 lib/built-in.o
                0x0000000040200118                efi_reset_system
                0x000000004020011c                efi_get_time
                0x0000000040200140                efi_update_capsule
                0x0000000040200148                efi_query_capsule_caps
                0x0000000040200150                efi_query_variable_info
                0x0000000040200158                efi_update_table_header_crc32
                0x000000004020018c                crc32_no_comp
                0x0000000040200260                crc32
 .text.efi_runtime_relocate
                0x000000004020027c      0x12c lib/built-in.o
                0x000000004020027c                efi_runtime_relocate
 *(.rodata.efi_runtime*)
 .rodata.efi_runtime_detach_list
                0x00000000402003a8       0xa0 lib/built-in.o
 .rodata.efi_runtime_relocate.str1.1
                0x0000000040200448       0x4e lib/built-in.o
 *(.data.efi_runtime*)
 *fill*         0x0000000040200496        0x2 
 .data.efi_runtime
                0x0000000040200498      0x518 lib/built-in.o
                0x0000000040200498                systab
                0x0000000040200528                efi_runtime_services
 .data.efi_runtime_mmio
                0x00000000402009b0       0x10 lib/built-in.o
                0x00000000402009b0                efi_runtime_mmio
                0x00000000402009c0                __efi_runtime_stop = .

.text_rest      0x0000000040201000    0x70b54
 *(.text*)
 .text          0x0000000040201000      0x390 arch/arm/cpu/armv8/built-in.o
                0x0000000040201000                vectors
 .text.cleanup_before_linux
                0x0000000040201390       0x28 arch/arm/cpu/armv8/built-in.o
                0x0000000040201390                cleanup_before_linux
 .text.get_tbclk
                0x00000000402013b8        0x8 arch/arm/cpu/armv8/built-in.o
                0x00000000402013b8                get_tbclk
 .text.get_ticks
                0x00000000402013c0       0x10 arch/arm/cpu/armv8/built-in.o
                0x00000000402013c0                get_ticks
 .text.count_required_pts
                0x00000000402013d0       0xf8 arch/arm/cpu/armv8/built-in.o
 .text.create_table
                0x00000000402014c8       0x70 arch/arm/cpu/armv8/built-in.o
 .text.split_block
                0x0000000040201538       0x90 arch/arm/cpu/armv8/built-in.o
 .text.get_tcr  0x00000000402015c8       0xe4 arch/arm/cpu/armv8/built-in.o
                0x00000000402015c8                get_tcr
 .text.find_pte
                0x00000000402016ac       0x8c arch/arm/cpu/armv8/built-in.o
 .text.get_page_table_size
                0x0000000040201738       0x48 arch/arm/cpu/armv8/built-in.o
                0x0000000040201738                get_page_table_size
 .text.setup_pgtables
                0x0000000040201780      0x16c arch/arm/cpu/armv8/built-in.o
                0x0000000040201780                setup_pgtables
 .text.mmu_setup
                0x00000000402018ec      0x13c arch/arm/cpu/armv8/built-in.o
                0x00000000402018ec                mmu_setup
 .text.invalidate_dcache_all
                0x0000000040201a28       0x14 arch/arm/cpu/armv8/built-in.o
                0x0000000040201a28                invalidate_dcache_all
 .text.flush_dcache_all
                0x0000000040201a3c       0x14 arch/arm/cpu/armv8/built-in.o
                0x0000000040201a3c                flush_dcache_all
 .text.invalidate_dcache_range
                0x0000000040201a50        0x4 arch/arm/cpu/armv8/built-in.o
                0x0000000040201a50                invalidate_dcache_range
 .text.flush_dcache_range
                0x0000000040201a54        0x4 arch/arm/cpu/armv8/built-in.o
                0x0000000040201a54                flush_dcache_range
 .text.dcache_enable
                0x0000000040201a58      0x110 arch/arm/cpu/armv8/built-in.o
                0x0000000040201a58                dcache_enable
 .text.dcache_disable
                0x0000000040201b68       0x84 arch/arm/cpu/armv8/built-in.o
                0x0000000040201b68                dcache_disable
 .text.dcache_status
                0x0000000040201bec       0x34 arch/arm/cpu/armv8/built-in.o
                0x0000000040201bec                dcache_status
 .text.icache_disable
                0x0000000040201c20       0x64 arch/arm/cpu/armv8/built-in.o
                0x0000000040201c20                icache_disable
 .text.icache_status
                0x0000000040201c84       0x34 arch/arm/cpu/armv8/built-in.o
                0x0000000040201c84                icache_status
 .text.invalidate_icache_all
                0x0000000040201cb8       0x14 arch/arm/cpu/armv8/built-in.o
                0x0000000040201cb8                invalidate_icache_all
 .text.icache_enable
                0x0000000040201ccc       0x74 arch/arm/cpu/armv8/built-in.o
                0x0000000040201ccc                icache_enable
 .text.entry_non_secure
                0x0000000040201d40       0x28 arch/arm/cpu/armv8/built-in.o
 .text.switch_to_non_secure_mode
                0x0000000040201d68       0x54 arch/arm/cpu/armv8/built-in.o
                0x0000000040201d68                switch_to_non_secure_mode
 .text.__asm_dcache_level
                0x0000000040201dbc       0x64 arch/arm/cpu/armv8/built-in.o
                0x0000000040201dbc                __asm_dcache_level
 .text.__asm_dcache_all
                0x0000000040201e20       0x60 arch/arm/cpu/armv8/built-in.o
                0x0000000040201e20                __asm_dcache_all
 .text.__asm_flush_dcache_all
                0x0000000040201e80        0x8 arch/arm/cpu/armv8/built-in.o
                0x0000000040201e80                __asm_flush_dcache_all
 .text.__asm_invalidate_dcache_all
                0x0000000040201e88        0x8 arch/arm/cpu/armv8/built-in.o
                0x0000000040201e88                __asm_invalidate_dcache_all
 .text.__asm_flush_dcache_range
                0x0000000040201e90       0x34 arch/arm/cpu/armv8/built-in.o
                0x0000000040201e90                __asm_flush_dcache_range
 .text.__asm_invalidate_dcache_range
                0x0000000040201ec4       0x30 arch/arm/cpu/armv8/built-in.o
                0x0000000040201ec4                __asm_invalidate_dcache_range
 .text.__asm_invalidate_icache_all
                0x0000000040201ef4        0xc arch/arm/cpu/armv8/built-in.o
                0x0000000040201ef4                __asm_invalidate_icache_all
 .text.__asm_invalidate_l3_dcache
                0x0000000040201f00        0x8 arch/arm/cpu/armv8/built-in.o
                0x0000000040201f00                __asm_invalidate_l3_dcache
 .text.__asm_flush_l3_dcache
                0x0000000040201f08        0x8 arch/arm/cpu/armv8/built-in.o
                0x0000000040201f08                __asm_flush_l3_dcache
 .text.__asm_invalidate_l3_icache
                0x0000000040201f10        0x8 arch/arm/cpu/armv8/built-in.o
                0x0000000040201f10                __asm_invalidate_l3_icache
 .text.__asm_invalidate_tlb_all
                0x0000000040201f18       0x4c arch/arm/cpu/armv8/built-in.o
                0x0000000040201f18                __asm_invalidate_tlb_all
 *fill*         0x0000000040201f64        0x4 
 .text.armv8_switch_to_el2
                0x0000000040201f68       0xb8 arch/arm/cpu/armv8/built-in.o
                0x0000000040201f68                armv8_switch_to_el2
 .text.armv8_el2_to_aarch32
                0x0000000040202020        0x4 arch/arm/cpu/armv8/built-in.o
                0x0000000040202020                armv8_el2_to_aarch32
 .text.smc_call
                0x0000000040202024       0x44 arch/arm/cpu/armv8/built-in.o
                0x0000000040202024                smc_call
 .text          0x0000000040202068      0x144 arch/arm/lib/built-in.o
                0x0000000040202068                _main
                0x00000000402020e8                relocate_code
 .text.setjmp   0x00000000402021ac       0x28 arch/arm/lib/built-in.o
                0x00000000402021ac                setjmp
 .text.longjmp  0x00000000402021d4       0x2c arch/arm/lib/built-in.o
                0x00000000402021d4                longjmp
 .text.arch_fixup_fdt
                0x0000000040202200       0x4c arch/arm/lib/built-in.o
                0x0000000040202200                arch_fixup_fdt
 .text.arch_lmb_reserve
                0x000000004020224c       0x84 arch/arm/lib/built-in.o
                0x000000004020224c                arch_lmb_reserve
 .text.setup_board_tags
                0x00000000402022d0        0x4 arch/arm/lib/built-in.o
                0x00000000402022d0                setup_board_tags
 .text.boot_prep_linux
                0x00000000402022d4       0xf8 arch/arm/lib/built-in.o
 .text.update_os_arch_secondary_cores
                0x00000000402023cc        0x4 arch/arm/lib/built-in.o
                0x00000000402023cc                update_os_arch_secondary_cores
 .text.boot_jump_linux
                0x00000000402023d0       0xc0 arch/arm/lib/built-in.o
 .text.do_bootm_linux
                0x0000000040202490       0x7c arch/arm/lib/built-in.o
                0x0000000040202490                do_bootm_linux
 .text.boot_prep_vxworks
                0x000000004020250c       0x54 arch/arm/lib/built-in.o
                0x000000004020250c                boot_prep_vxworks
 .text.boot_jump_vxworks
                0x0000000040202560        0xc arch/arm/lib/built-in.o
                0x0000000040202560                boot_jump_vxworks
 .text.booti_setup
                0x000000004020256c       0xb8 arch/arm/lib/built-in.o
                0x000000004020256c                booti_setup
 .text.arch_reserve_stacks
                0x0000000040202624       0x10 arch/arm/lib/built-in.o
                0x0000000040202624                arch_reserve_stacks
 .text.interrupt_init
                0x0000000040202634        0x8 arch/arm/lib/built-in.o
                0x0000000040202634                interrupt_init
 .text.enable_interrupts
                0x000000004020263c        0x4 arch/arm/lib/built-in.o
                0x000000004020263c                enable_interrupts
 .text.disable_interrupts
                0x0000000040202640        0x8 arch/arm/lib/built-in.o
                0x0000000040202640                disable_interrupts
 .text.show_regs
                0x0000000040202648       0x9c arch/arm/lib/built-in.o
                0x0000000040202648                show_regs
 .text.do_bad_sync
                0x00000000402026e4       0x3c arch/arm/lib/built-in.o
                0x00000000402026e4                do_bad_sync
 .text.do_bad_irq
                0x0000000040202720       0x3c arch/arm/lib/built-in.o
                0x0000000040202720                do_bad_irq
 .text.do_bad_fiq
                0x000000004020275c       0x3c arch/arm/lib/built-in.o
                0x000000004020275c                do_bad_fiq
 .text.do_bad_error
                0x0000000040202798       0x3c arch/arm/lib/built-in.o
                0x0000000040202798                do_bad_error
 .text.do_sync  0x00000000402027d4       0x3c arch/arm/lib/built-in.o
                0x00000000402027d4                do_sync
 .text.do_irq   0x0000000040202810       0x3c arch/arm/lib/built-in.o
                0x0000000040202810                do_irq
 .text.do_fiq   0x000000004020284c       0x3c arch/arm/lib/built-in.o
                0x000000004020284c                do_fiq
 .text.do_error
                0x0000000040202888       0x3c arch/arm/lib/built-in.o
                0x0000000040202888                do_error
 .text.reset_misc
                0x00000000402028c4        0x4 arch/arm/lib/built-in.o
                0x00000000402028c4                reset_misc
 .text.do_reset
                0x00000000402028c8       0x38 arch/arm/lib/built-in.o
                0x00000000402028c8                do_reset
 .text.flush_cache
                0x0000000040202900        0x8 arch/arm/lib/built-in.o
                0x0000000040202900                flush_cache
 *fill*         0x0000000040202908       0xf8 
 .text          0x0000000040202a00      0x298 arch/arm/mach-imx/built-in.o
                0x0000000040202a00                lowlevel_init
                0x0000000040202b00                rom_pointer
                0x0000000040202c00                save_boot_params
                0x0000000040202c4c                restore_boot_params
 .text.imx_iomux_v3_setup_pad
                0x0000000040202c98       0xc0 arch/arm/mach-imx/built-in.o
                0x0000000040202c98                imx_iomux_v3_setup_pad
 .text.imx_iomux_v3_setup_multiple_pads
                0x0000000040202d58       0x44 arch/arm/mach-imx/built-in.o
                0x0000000040202d58                imx_iomux_v3_setup_multiple_pads
 .text.arch_auxiliary_core_up
                0x0000000040202d9c       0x54 arch/arm/mach-imx/built-in.o
                0x0000000040202d9c                arch_auxiliary_core_up
 .text.arch_auxiliary_core_check_up
                0x0000000040202df0       0x2c arch/arm/mach-imx/built-in.o
                0x0000000040202df0                arch_auxiliary_core_check_up
 .text.do_bootaux
                0x0000000040202e1c       0xa8 arch/arm/mach-imx/built-in.o
 .text.board_mmc_get_env_dev
                0x0000000040202ec4        0x4 arch/arm/mach-imx/built-in.o
                0x0000000040202ec4                board_mmc_get_env_dev
 .text.mmc_get_env_dev
                0x0000000040202ec8       0x60 arch/arm/mach-imx/built-in.o
                0x0000000040202ec8                mmc_get_env_dev
 .text.imx_get_mac_from_fuse
                0x0000000040202f28      0x120 arch/arm/mach-imx/built-in.o
                0x0000000040202f28                imx_get_mac_from_fuse
 .text.get_imx_reset_cause
                0x0000000040203048       0x28 arch/arm/mach-imx/built-in.o
                0x0000000040203048                get_imx_reset_cause
 .text.get_reset_cause
                0x0000000040203070       0xf8 arch/arm/mach-imx/built-in.o
 .text.get_reboot_reason
                0x0000000040203168       0x38 arch/arm/mach-imx/built-in.o
                0x0000000040203168                get_reboot_reason
 .text.get_imx_type
                0x00000000402031a0      0x234 arch/arm/mach-imx/built-in.o
                0x00000000402031a0                get_imx_type
 .text.arch_preboot_os
                0x00000000402033d4        0x4 arch/arm/mach-imx/built-in.o
                0x00000000402033d4                arch_preboot_os
 .text.get_cpu_speed_grade_hz
                0x00000000402033d8      0x26c arch/arm/mach-imx/built-in.o
                0x00000000402033d8                get_cpu_speed_grade_hz
 .text.get_cpu_temp_grade
                0x0000000040203644       0x70 arch/arm/mach-imx/built-in.o
                0x0000000040203644                get_cpu_temp_grade
 .text.print_cpuinfo
                0x00000000402036b4      0x164 arch/arm/mach-imx/built-in.o
                0x00000000402036b4                print_cpuinfo
 .text.get_boot_device
                0x0000000040203818       0xb4 arch/arm/mach-imx/built-in.o
                0x0000000040203818                get_boot_device
 .text.board_lmb_reserve
                0x00000000402038cc       0x6c arch/arm/mach-imx/built-in.o
                0x00000000402038cc                board_lmb_reserve
 .text.imx_sec_init
                0x0000000040203938        0x4 arch/arm/mach-imx/built-in.o
                0x0000000040203938                imx_sec_init
 .text.call_imx_sip
                0x000000004020393c       0x28 arch/arm/mach-imx/built-in.o
                0x000000004020393c                call_imx_sip
 .text.select   0x0000000040203964       0x34 arch/arm/mach-imx/built-in.o
 .text.get_clk_root_target
                0x0000000040203998       0x8c arch/arm/mach-imx/built-in.o
 .text.clock_get_target_val
                0x0000000040203a24       0x68 arch/arm/mach-imx/built-in.o
                0x0000000040203a24                clock_get_target_val
 .text.clock_set_target_val
                0x0000000040203a8c       0x64 arch/arm/mach-imx/built-in.o
                0x0000000040203a8c                clock_set_target_val
 .text.clock_root_enabled
                0x0000000040203af0       0x74 arch/arm/mach-imx/built-in.o
                0x0000000040203af0                clock_root_enabled
 .text.clock_enable
                0x0000000040203b64       0x4c arch/arm/mach-imx/built-in.o
                0x0000000040203b64                clock_enable
 .text.clock_get_prediv
                0x0000000040203bb0       0x84 arch/arm/mach-imx/built-in.o
                0x0000000040203bb0                clock_get_prediv
 .text.clock_get_postdiv
                0x0000000040203c34       0xa4 arch/arm/mach-imx/built-in.o
                0x0000000040203c34                clock_get_postdiv
 .text.clock_get_src
                0x0000000040203cd8       0x70 arch/arm/mach-imx/built-in.o
                0x0000000040203cd8                clock_get_src
 .text.get_cpu_variant_type
                0x0000000040203d48       0xdc arch/arm/mach-imx/built-in.o
 .text.disable_fdt_nodes
                0x0000000040203e24      0x104 arch/arm/mach-imx/built-in.o
 .text.disable_dcss_nodes
                0x0000000040203f28       0x40 arch/arm/mach-imx/built-in.o
 .text.disable_mipi_dsi_nodes
                0x0000000040203f68       0x40 arch/arm/mach-imx/built-in.o
 .text.timer_init
                0x0000000040203fa8       0x10 arch/arm/mach-imx/built-in.o
                0x0000000040203fa8                timer_init
 .text.set_wdog_reset
                0x0000000040203fb8       0x18 arch/arm/mach-imx/built-in.o
                0x0000000040203fb8                set_wdog_reset
 .text.enable_caches
                0x0000000040203fd0       0x34 arch/arm/mach-imx/built-in.o
                0x0000000040203fd0                enable_caches
 .text.get_cpu_rev
                0x0000000040204004       0xb4 arch/arm/mach-imx/built-in.o
                0x0000000040204004                get_cpu_rev
 .text.arch_cpu_init
                0x00000000402040b8       0x88 arch/arm/mach-imx/built-in.o
                0x00000000402040b8                arch_cpu_init
 .text.is_usb_boot
                0x0000000040204140       0x1c arch/arm/mach-imx/built-in.o
                0x0000000040204140                is_usb_boot
 .text.get_board_serial
                0x000000004020415c       0x1c arch/arm/mach-imx/built-in.o
                0x000000004020415c                get_board_serial
 .text.check_dcss_fused
                0x0000000040204178       0x18 arch/arm/mach-imx/built-in.o
                0x0000000040204178                check_dcss_fused
 .text.board_quiesce_devices
                0x0000000040204190       0x30 arch/arm/mach-imx/built-in.o
                0x0000000040204190                board_quiesce_devices
 .text.disable_vpu_nodes
                0x00000000402041c0       0xf8 arch/arm/mach-imx/built-in.o
                0x00000000402041c0                disable_vpu_nodes
 .text.disable_cpu_nodes
                0x00000000402042b8       0xf4 arch/arm/mach-imx/built-in.o
                0x00000000402042b8                disable_cpu_nodes
 .text.ft_system_setup
                0x00000000402043ac      0x3d0 arch/arm/mach-imx/built-in.o
                0x00000000402043ac                ft_system_setup
 .text.reset_cpu
                0x000000004020477c       0x14 arch/arm/mach-imx/built-in.o
                0x000000004020477c                reset_cpu
 .text.arch_misc_init
                0x0000000040204790       0x60 arch/arm/mach-imx/built-in.o
                0x0000000040204790                arch_misc_init
 .text.imx8m_usb_power
                0x00000000402047f0       0x48 arch/arm/mach-imx/built-in.o
                0x00000000402047f0                imx8m_usb_power
 .text.nxp_tmu_arch_init
                0x0000000040204838      0x118 arch/arm/mach-imx/built-in.o
                0x0000000040204838                nxp_tmu_arch_init
 .text.decode_sscg_pll
                0x0000000040204950      0x214 arch/arm/mach-imx/built-in.o
 .text.decode_frac_pll.part.0
                0x0000000040204b64       0x84 arch/arm/mach-imx/built-in.o
 .text.get_root_clk
                0x0000000040204be8       0xdc arch/arm/mach-imx/built-in.o
 .text.enable_ocotp_clk
                0x0000000040204cc4       0x10 arch/arm/mach-imx/built-in.o
                0x0000000040204cc4                enable_ocotp_clk
 .text.enable_i2c_clk
                0x0000000040204cd4       0x3c arch/arm/mach-imx/built-in.o
                0x0000000040204cd4                enable_i2c_clk
 .text.mxc_get_clock
                0x0000000040204d10       0xb0 arch/arm/mach-imx/built-in.o
                0x0000000040204d10                mxc_get_clock
 .text.do_imx8m_showclocks
                0x0000000040204dc0      0x248 arch/arm/mach-imx/built-in.o
                0x0000000040204dc0                do_imx8m_showclocks
 .text.imx_get_uartclk
                0x0000000040205008        0x8 arch/arm/mach-imx/built-in.o
                0x0000000040205008                imx_get_uartclk
 .text.init_usb_clk
                0x0000000040205010       0xa4 arch/arm/mach-imx/built-in.o
                0x0000000040205010                init_usb_clk
 .text.init_clk_usdhc
                0x00000000402050b4       0x80 arch/arm/mach-imx/built-in.o
                0x00000000402050b4                init_clk_usdhc
 .text.set_clk_qspi
                0x0000000040205134       0x38 arch/arm/mach-imx/built-in.o
                0x0000000040205134                set_clk_qspi
 .text.set_clk_enet
                0x000000004020516c       0x90 arch/arm/mach-imx/built-in.o
                0x000000004020516c                set_clk_enet
 .text.imx_get_fecclk
                0x00000000402051fc        0x8 arch/arm/mach-imx/built-in.o
                0x00000000402051fc                imx_get_fecclk
 .text.mmc_map_to_kernel_blk
                0x0000000040205204        0x4 board/freescale/common/built-in.o
                0x0000000040205204                mmc_map_to_kernel_blk
 .text.board_late_mmc_env_init
                0x0000000040205208       0x9c board/freescale/common/built-in.o
                0x0000000040205208                board_late_mmc_env_init
 .text.board_early_init_f
                0x00000000402052a4       0x3c board/freescale/imx8mq_evk/built-in.o
                0x00000000402052a4                board_early_init_f
 .text.dram_init
                0x00000000402052e0       0x24 board/freescale/imx8mq_evk/built-in.o
                0x00000000402052e0                dram_init
 .text.board_phy_config
                0x0000000040205304       0xa4 board/freescale/imx8mq_evk/built-in.o
                0x0000000040205304                board_phy_config
 .text.usb_gadget_handle_interrupts
                0x00000000402053a8       0x1c board/freescale/imx8mq_evk/built-in.o
                0x00000000402053a8                usb_gadget_handle_interrupts
 .text.board_usb_init
                0x00000000402053c4       0xe4 board/freescale/imx8mq_evk/built-in.o
                0x00000000402053c4                board_usb_init
 .text.board_usb_cleanup
                0x00000000402054a8       0x40 board/freescale/imx8mq_evk/built-in.o
                0x00000000402054a8                board_usb_cleanup
 .text.board_init
                0x00000000402054e8      0x134 board/freescale/imx8mq_evk/built-in.o
                0x00000000402054e8                board_init
 .text.board_late_init
                0x000000004020561c       0x18 board/freescale/imx8mq_evk/built-in.o
                0x000000004020561c                board_late_init
 .text.do_go_exec
                0x0000000040205634       0x10 cmd/built-in.o
                0x0000000040205634                do_go_exec
 .text.do_go    0x0000000040205644       0x88 cmd/built-in.o
 .text.do_bootm
                0x00000000402056cc      0x104 cmd/built-in.o
                0x00000000402056cc                do_bootm
 .text.do_bootd
                0x00000000402057d0       0x2c cmd/built-in.o
                0x00000000402057d0                do_bootd
 .text.image_info
                0x00000000402057fc      0x148 cmd/built-in.o
 .text.do_iminfo
                0x0000000040205944       0x7c cmd/built-in.o
 .text.bootm_maybe_autostart
                0x00000000402059c0       0x74 cmd/built-in.o
                0x00000000402059c0                bootm_maybe_autostart
 .text.do_help  0x0000000040205a34       0x44 cmd/built-in.o
 .text.do_version
                0x0000000040205a78       0x40 cmd/built-in.o
 .text.blk_common_cmd
                0x0000000040205ab8      0x32c cmd/built-in.o
                0x0000000040205ab8                blk_common_cmd
 .text.source   0x0000000040205de4      0x204 cmd/built-in.o
                0x0000000040205de4                source
 .text.do_source
                0x0000000040205fe8       0x78 cmd/built-in.o
 .text.print_num
                0x0000000040206060       0x18 cmd/built-in.o
 .text.do_bdinfo
                0x0000000040206078      0x134 cmd/built-in.o
 .text.do_blkcache
                0x00000000402061ac       0x80 cmd/built-in.o
 .text.blkc_configure
                0x000000004020622c       0x78 cmd/built-in.o
 .text.blkc_show
                0x00000000402062a4       0x34 cmd/built-in.o
 .text.efi_install_fdt
                0x00000000402062d8      0x230 cmd/built-in.o
 .text.do_bootefi_exec
                0x0000000040206508      0x240 cmd/built-in.o
 .text.allow_unaligned
                0x0000000040206748        0x4 cmd/built-in.o
                0x0000000040206748                allow_unaligned
 .text.do_bootefi
                0x000000004020674c      0x164 cmd/built-in.o
 .text.efi_set_bootdev
                0x00000000402068b0       0x84 cmd/built-in.o
                0x00000000402068b0                efi_set_bootdev
 .text.do_booti
                0x0000000040206934      0x110 cmd/built-in.o
                0x0000000040206934                do_booti
 .text.parse_argv
                0x0000000040206a44       0x68 cmd/built-in.o
 .text.do_icache
                0x0000000040206aac       0x98 cmd/built-in.o
 .text.do_dcache
                0x0000000040206b44       0x98 cmd/built-in.o
 .text.do_coninfo
                0x0000000040206bdc       0xdc cmd/built-in.o
 .text.do_dm_dump_devres
                0x0000000040206cb8        0x8 cmd/built-in.o
 .text.do_dm    0x0000000040206cc0       0x94 cmd/built-in.o
 .text.do_dm_dump_uclass
                0x0000000040206d54       0x18 cmd/built-in.o
 .text.do_dm_dump_all
                0x0000000040206d6c       0x18 cmd/built-in.o
 .text.do_echo  0x0000000040206d84       0xd4 cmd/built-in.o
 .text.load_elf_image_phdr
                0x0000000040206e58      0x130 cmd/built-in.o
 .text.valid_elf_image
                0x0000000040206f88       0x58 cmd/built-in.o
                0x0000000040206f88                valid_elf_image
 .text.do_bootelf
                0x0000000040206fe0      0x290 cmd/built-in.o
                0x0000000040206fe0                do_bootelf
 .text.do_bootvx
                0x0000000040207270      0x334 cmd/built-in.o
                0x0000000040207270                do_bootvx
 .text.do_exit  0x00000000402075a4       0x40 cmd/built-in.o
 .text.do_ext4_size
                0x00000000402075e4        0x8 cmd/built-in.o
                0x00000000402075e4                do_ext4_size
 .text.do_ext4_load
                0x00000000402075ec        0x8 cmd/built-in.o
                0x00000000402075ec                do_ext4_load
 .text.do_ext4_ls
                0x00000000402075f4        0x8 cmd/built-in.o
                0x00000000402075f4                do_ext4_ls
 .text.do_ext4_write
                0x00000000402075fc        0x8 cmd/built-in.o
                0x00000000402075fc                do_ext4_write
 .text.do_ext2load
                0x0000000040207604        0x8 cmd/built-in.o
                0x0000000040207604                do_ext2load
 .text.do_ext2ls
                0x000000004020760c        0x8 cmd/built-in.o
 .text.do_fat_size
                0x0000000040207614        0x8 cmd/built-in.o
                0x0000000040207614                do_fat_size
 .text.do_fat_fsload
                0x000000004020761c        0x8 cmd/built-in.o
                0x000000004020761c                do_fat_fsload
 .text.do_fat_ls
                0x0000000040207624        0x8 cmd/built-in.o
 .text.do_fat_fsinfo
                0x000000004020762c       0x94 cmd/built-in.o
 .text.do_fat_fswrite
                0x00000000402076c0      0x148 cmd/built-in.o
 .text.do_fat_rm
                0x0000000040207808        0x8 cmd/built-in.o
 .text.do_fat_mkdir
                0x0000000040207810        0x8 cmd/built-in.o
 .text.fdt_valid
                0x0000000040207818       0xcc cmd/built-in.o
 .text.is_printable_string
                0x00000000402078e4       0x80 cmd/built-in.o
 .text.print_data
                0x0000000040207964      0x1bc cmd/built-in.o
 .text.set_working_fdt_addr
                0x0000000040207b20       0x18 cmd/built-in.o
                0x0000000040207b20                set_working_fdt_addr
 .text.do_fdt   0x0000000040207b38      0xfbc cmd/built-in.o
 .text.do_flinfo
                0x0000000040208af4        0x8 cmd/built-in.o
 .text.do_protect
                0x0000000040208afc        0xc cmd/built-in.o
 .text.do_flerase
                0x0000000040208b08        0x8 cmd/built-in.o
 .text.strtou32
                0x0000000040208b10       0x54 cmd/built-in.o
 .text.do_fuse  0x0000000040208b64      0x364 cmd/built-in.o
 .text.gpio_get_description
                0x0000000040208ec8       0xd8 cmd/built-in.o
 .text.do_gpio  0x0000000040208fa0      0x358 cmd/built-in.o
 .text.do_i2c   0x00000000402092f8       0x80 cmd/built-in.o
 .text.i2c_get_cur_bus
                0x0000000040209378       0x38 cmd/built-in.o
 .text.do_i2c_bus_speed
                0x00000000402093b0       0xb0 cmd/built-in.o
 .text.do_i2c_reset
                0x0000000040209460       0x38 cmd/built-in.o
 .text.i2c_get_cur_bus_chip
                0x0000000040209498       0x40 cmd/built-in.o
 .text.do_i2c_probe
                0x00000000402094d8       0xcc cmd/built-in.o
 .text.do_i2c_bus_num
                0x00000000402095a4       0xb4 cmd/built-in.o
 .text.show_bus
                0x0000000040209658       0x98 cmd/built-in.o
 .text.do_i2c_olen
                0x00000000402096f0       0xb8 cmd/built-in.o
 .text.do_i2c_flags
                0x00000000402097a8       0xcc cmd/built-in.o
 .text.do_i2c_show_bus
                0x0000000040209874       0xc0 cmd/built-in.o
 .text.get_alen.constprop.11
                0x0000000040209934       0x38 cmd/built-in.o
 .text.do_i2c_crc
                0x000000004020996c      0x17c cmd/built-in.o
 .text.mod_i2c_mem.isra.6.part.7
                0x0000000040209ae8      0x23c cmd/built-in.o
 .text.do_i2c_nm
                0x0000000040209d24       0x1c cmd/built-in.o
 .text.do_i2c_md
                0x0000000040209d40      0x234 cmd/built-in.o
 .text.do_i2c_read
                0x0000000040209f74      0x104 cmd/built-in.o
 .text.do_i2c_mw
                0x000000004020a078      0x144 cmd/built-in.o
 .text.do_i2c_write
                0x000000004020a1bc      0x1cc cmd/built-in.o
 .text.do_i2c_loop
                0x000000004020a388      0x14c cmd/built-in.o
 .text.do_i2c_mm
                0x000000004020a4d4       0x1c cmd/built-in.o
 .text.evalexp  0x000000004020a4f0       0x94 cmd/built-in.o
 .text.evalstr  0x000000004020a584       0x5c cmd/built-in.o
 .text.binary_test
                0x000000004020a5e0      0x198 cmd/built-in.o
 .text.do_itest
                0x000000004020a778       0x90 cmd/built-in.o
 .text.bin_data_init
                0x000000004020a808       0x1c cmd/built-in.o
 .text.k_data_save
                0x000000004020a824       0x34 cmd/built-in.o
 .text.k_data_restore
                0x000000004020a858       0x34 cmd/built-in.o
 .text.getcxmodem
                0x000000004020a88c       0x24 cmd/built-in.o
 .text.load_serial_ymodem
                0x000000004020a8b0       0xf0 cmd/built-in.o
 .text.bin_data_char
                0x000000004020a9a0       0x28 cmd/built-in.o
 .text.chk1.constprop.1
                0x000000004020a9c8       0x34 cmd/built-in.o
 .text.s1_sendpacket.constprop.2
                0x000000004020a9fc       0x5c cmd/built-in.o
 .text.load_serial
                0x000000004020aa58      0x1dc cmd/built-in.o
 .text.do_load_serial
                0x000000004020ac34       0xe0 cmd/built-in.o
 .text.do_load_serial_bin
                0x000000004020ad14      0x79c cmd/built-in.o
 .text.do_mem_md
                0x000000004020b4b0       0xf8 cmd/built-in.o
 .text.do_mem_base
                0x000000004020b5a8       0x4c cmd/built-in.o
 .text.do_mem_mtest
                0x000000004020b5f4      0x230 cmd/built-in.o
 .text.do_mem_loop
                0x000000004020b824      0x128 cmd/built-in.o
 .text.do_mem_cmp
                0x000000004020b94c      0x1a8 cmd/built-in.o
 .text.mod_mem.isra.2.part.3
                0x000000004020baf4      0x1b8 cmd/built-in.o
 .text.do_mem_mm
                0x000000004020bcac       0x1c cmd/built-in.o
 .text.do_mem_mw
                0x000000004020bcc8      0x108 cmd/built-in.o
 .text.do_mem_cp
                0x000000004020bdd0       0xc0 cmd/built-in.o
 .text.do_mem_nm
                0x000000004020be90       0x1c cmd/built-in.o
 .text.extract_range
                0x000000004020beac       0xf8 cmd/built-in.o
 .text.do_mii   0x000000004020bfa4      0x8f4 cmd/built-in.o
 .text.do_mdio  0x000000004020c898      0x4a0 cmd/built-in.o
 .text.do_sleep
                0x000000004020cd38       0xe8 cmd/built-in.o
 .text.do_mmcops
                0x000000004020ce20       0xe4 cmd/built-in.o
 .text.init_mmc_device
                0x000000004020cf04       0x84 cmd/built-in.o
 .text.do_mmc_rst_func
                0x000000004020cf88       0xa8 cmd/built-in.o
 .text.do_mmc_rescan
                0x000000004020d030       0x28 cmd/built-in.o
 .text.do_mmc_partconf
                0x000000004020d058      0x110 cmd/built-in.o
 .text.do_mmc_bootbus
                0x000000004020d168       0xc8 cmd/built-in.o
 .text.do_mmc_hwpartition
                0x000000004020d230      0x4ec cmd/built-in.o
 .text.do_mmc_list
                0x000000004020d71c       0x1c cmd/built-in.o
 .text.do_mmc_dev
                0x000000004020d738      0x14c cmd/built-in.o
 .text.do_mmcinfo
                0x000000004020d884      0x3b4 cmd/built-in.o
 .text.do_mmc_setdsr
                0x000000004020dc38       0xbc cmd/built-in.o
 .text.do_mmc_boot_resize
                0x000000004020dcf4       0xe0 cmd/built-in.o
 .text.do_mmc_part
                0x000000004020ddd4       0x64 cmd/built-in.o
 .text.do_mmc_erase
                0x000000004020de38      0x104 cmd/built-in.o
 .text.do_mmc_write
                0x000000004020df3c      0x124 cmd/built-in.o
 .text.do_mmc_read
                0x000000004020e060       0xfc cmd/built-in.o
 .text.netboot_common
                0x000000004020e15c      0x2bc cmd/built-in.o
 .text.do_bootp
                0x000000004020e418        0xc cmd/built-in.o
 .text.do_dhcp  0x000000004020e424        0xc cmd/built-in.o
 .text.do_nfs   0x000000004020e430        0xc cmd/built-in.o
 .text.do_tftpb
                0x000000004020e43c       0x58 cmd/built-in.o
                0x000000004020e43c                do_tftpb
 .text.do_ping  0x000000004020e494       0x7c cmd/built-in.o
 .text.efi_dump_single_var
                0x000000004020e510      0x15c cmd/built-in.o
 .text.do_env_print_efi
                0x000000004020e66c      0x1b0 cmd/built-in.o
                0x000000004020e66c                do_env_print_efi
 .text.do_env_set_efi
                0x000000004020e81c      0x3c0 cmd/built-in.o
                0x000000004020e81c                do_env_set_efi
 .text.do_pinmux
                0x000000004020ebdc       0x7c cmd/built-in.o
 .text.do_list  0x000000004020ec58      0x148 cmd/built-in.o
 .text.show_pinmux
                0x000000004020eda0       0xec cmd/built-in.o
 .text.do_status
                0x000000004020ee8c      0x3b0 cmd/built-in.o
 .text.do_dev   0x000000004020f23c      0x150 cmd/built-in.o
 .text.do_raw_read
                0x000000004020f38c      0x18c cmd/built-in.o
                0x000000004020f38c                do_raw_read
 .text.bytes_per_second
                0x000000004020f518       0x4c cmd/built-in.o
 .text.do_spi_flash
                0x000000004020f564      0x7c8 cmd/built-in.o
 .text.substitute
                0x000000004020fd2c      0x118 cmd/built-in.o
 .text.get_arg  0x000000004020fe44       0x68 cmd/built-in.o
 .text.regex_sub.part.1
                0x000000004020feac      0x2c4 cmd/built-in.o
 .text.do_setexpr
                0x0000000040210170      0x1a8 cmd/built-in.o
 .text.do_false
                0x0000000040210318        0x8 cmd/built-in.o
 .text.do_true  0x0000000040210320        0x8 cmd/built-in.o
 .text.do_test  0x0000000040210328      0x35c cmd/built-in.o
 .text.do_unzip
                0x0000000040210684       0xbc cmd/built-in.o
 .text.do_gzwrite
                0x0000000040210740      0x118 cmd/built-in.o
 .text.do_lzmadec
                0x0000000040210858       0xbc cmd/built-in.o
 .text.usb_get_class_desc
                0x0000000040210914       0xc0 cmd/built-in.o
 .text.usb_display_class_sub
                0x00000000402109d4      0x18c cmd/built-in.o
 .text.usb_display_desc
                0x0000000040210b60      0x144 cmd/built-in.o
 .text.usb_show_tree_graph
                0x0000000040210ca4      0x234 cmd/built-in.o
 .text.usb_show_subtree
                0x0000000040210ed8       0x38 cmd/built-in.o
 .text.usb_for_each_root_dev
                0x0000000040210f10       0x68 cmd/built-in.o
 .text.usb_display_string
                0x0000000040210f78       0x4c cmd/built-in.o
 .text.usb_display_config
                0x0000000040210fc4      0x254 cmd/built-in.o
 .text.usb_show_info
                0x0000000040211218       0x78 cmd/built-in.o
 .text.usb_find_device
                0x0000000040211290       0xb0 cmd/built-in.o
 .text.do_usbboot
                0x0000000040211340        0xc cmd/built-in.o
 .text.do_usb_start
                0x000000004021134c       0x30 cmd/built-in.o
 .text.usb_show_tree
                0x000000004021137c        0xc cmd/built-in.o
                0x000000004021137c                usb_show_tree
 .text.do_usb   0x0000000040211388      0x404 cmd/built-in.o
 .text.common_diskboot
                0x000000004021178c      0x2a4 cmd/built-in.o
                0x000000004021178c                common_diskboot
 .text.do_fastboot
                0x0000000040211a30      0x20c cmd/built-in.o
 .text.ums_fini
                0x0000000040211c3c       0x70 cmd/built-in.o
 .text.ums_write_sector
                0x0000000040211cac       0x20 cmd/built-in.o
 .text.ums_read_sector
                0x0000000040211ccc       0x20 cmd/built-in.o
 .text.do_usb_mass_storage
                0x0000000040211cec      0x340 cmd/built-in.o
 .text.do_imgextract
                0x000000004021202c      0x3bc cmd/built-in.o
 .text.del_gpt_info
                0x00000000402123e8       0x48 cmd/built-in.o
 .text.extract_val
                0x0000000040212430       0xa0 cmd/built-in.o
 .text.calc_parts_list_len
                0x00000000402124d0       0xa4 cmd/built-in.o
 .text.extract_env
                0x0000000040212574       0xf8 cmd/built-in.o
 .text.get_gpt_info
                0x000000004021266c      0x12c cmd/built-in.o
 .text.create_gpt_partitions_list.isra.1
                0x0000000040212798      0x148 cmd/built-in.o
 .text.set_gpt_info.isra.0
                0x00000000402128e0      0x3fc cmd/built-in.o
 .text.print_gpt_info
                0x0000000040212cdc       0xec cmd/built-in.o
 .text.do_gpt   0x0000000040212dc8      0x6a4 cmd/built-in.o
 .text.do_regulator
                0x000000004021346c       0x7c cmd/built-in.o
 .text.failure  0x00000000402134e8       0x28 cmd/built-in.o
 .text.constraint
                0x0000000040213510       0x84 cmd/built-in.o
 .text.curr_dev_and_platdata
                0x0000000040213594       0xa0 cmd/built-in.o
 .text.do_disable
                0x0000000040213634       0x68 cmd/built-in.o
 .text.do_enable
                0x000000004021369c       0x68 cmd/built-in.o
 .text.do_mode  0x0000000040213704       0xd0 cmd/built-in.o
 .text.do_current
                0x00000000402137d4      0x104 cmd/built-in.o
 .text.do_value
                0x00000000402138d8      0x144 cmd/built-in.o
 .text.do_info  0x0000000040213a1c      0x1d4 cmd/built-in.o
 .text.do_env_delete
                0x0000000040213bf0       0xc0 cmd/built-in.o
 .text._do_env_set
                0x0000000040213cb0      0x1f4 cmd/built-in.o
 .text.do_env_set
                0x0000000040213ea4       0x24 cmd/built-in.o
 .text.do_env_save
                0x0000000040213ec8       0x1c cmd/built-in.o
 .text.do_env   0x0000000040213ee4       0x80 cmd/built-in.o
 .text.env_print
                0x0000000040213f64       0xc4 cmd/built-in.o
 .text.do_env_print
                0x0000000040214028      0x104 cmd/built-in.o
 .text.do_env_default
                0x000000004021412c       0x98 cmd/built-in.o
 .text.do_env_exists
                0x00000000402141c4       0x60 cmd/built-in.o
 .text.get_env_id
                0x0000000040214224        0xc cmd/built-in.o
                0x0000000040214224                get_env_id
 .text.env_set  0x0000000040214230       0x58 cmd/built-in.o
                0x0000000040214230                env_set
 .text.env_set_ulong
                0x0000000040214288       0x2c cmd/built-in.o
                0x0000000040214288                env_set_ulong
 .text.env_set_hex
                0x00000000402142b4       0x3c cmd/built-in.o
                0x00000000402142b4                env_set_hex
 .text.eth_parse_enetaddr
                0x00000000402142f0       0x70 cmd/built-in.o
                0x00000000402142f0                eth_parse_enetaddr
 .text.envmatch
                0x0000000040214360       0x7c cmd/built-in.o
                0x0000000040214360                envmatch
 .text.env_get_f
                0x00000000402143dc       0xfc cmd/built-in.o
                0x00000000402143dc                env_get_f
 .text.env_get  0x00000000402144d8       0x70 cmd/built-in.o
                0x00000000402144d8                env_get
 .text.env_get_hex
                0x0000000040214548       0x44 cmd/built-in.o
                0x0000000040214548                env_get_hex
 .text.eth_env_get_enetaddr
                0x000000004021458c       0x68 cmd/built-in.o
                0x000000004021458c                eth_env_get_enetaddr
 .text.eth_env_set_enetaddr
                0x00000000402145f4       0x54 cmd/built-in.o
                0x00000000402145f4                eth_env_set_enetaddr
 .text.env_get_ulong
                0x0000000040214648       0x40 cmd/built-in.o
                0x0000000040214648                env_get_ulong
 .text.do_env_edit.part.3
                0x0000000040214688       0xb8 cmd/built-in.o
 .text.do_env_edit
                0x0000000040214740       0x28 cmd/built-in.o
 .text.board_init_f_alloc_reserve
                0x0000000040214768       0x10 common/built-in.o
                0x0000000040214768                board_init_f_alloc_reserve
 .text.board_init_f_init_reserve
                0x0000000040214778       0x30 common/built-in.o
                0x0000000040214778                board_init_f_init_reserve
 .text.show_boot_progress
                0x00000000402147a8        0x8 common/built-in.o
                0x00000000402147a8                show_boot_progress
 .text.main_loop
                0x00000000402147b0       0x4c common/built-in.o
                0x00000000402147b0                main_loop
 .text.mdelay   0x00000000402147fc        0xc common/built-in.o
 .text.dummy    0x0000000040214808        0x4 common/built-in.o
 .text.get_version
                0x000000004021480c        0x8 common/built-in.o
                0x000000004021480c                get_version
 .text.jumptable_init
                0x0000000040214814      0x1e8 common/built-in.o
                0x0000000040214814                jumptable_init
 .text.b_reset  0x00000000402149fc       0x18 common/built-in.o
 .text.static_get
                0x0000000040214a14       0x1c common/built-in.o
 .text.static_peek
                0x0000000040214a30        0xc common/built-in.o
 .text.mapset   0x0000000040214a3c       0x20 common/built-in.o
 .text.syntax_err
                0x0000000040214a5c        0xc common/built-in.o
 .text.free_pipe_list
                0x0000000040214a68       0xf0 common/built-in.o
 .text.xmalloc  0x0000000040214b58       0x28 common/built-in.o
 .text.new_pipe
                0x0000000040214b80       0x24 common/built-in.o
 .text.xrealloc
                0x0000000040214ba4       0x28 common/built-in.o
 .text.done_command
                0x0000000040214bcc       0x94 common/built-in.o
 .text.done_pipe
                0x0000000040214c60       0x58 common/built-in.o
 .text.done_word
                0x0000000040214cb8      0x2a0 common/built-in.o
 .text.is_assignment
                0x0000000040214f58       0x4c common/built-in.o
 .text.file_get
                0x0000000040214fa4      0x1f4 common/built-in.o
 .text.do_showvar
                0x0000000040215198      0x10c common/built-in.o
 .text.b_addchr
                0x00000000402152a4       0x94 common/built-in.o
 .text.b_addqchr
                0x0000000040215338       0x58 common/built-in.o
 .text.file_peek
                0x0000000040215390        0xc common/built-in.o
 .text.get_local_var
                0x000000004021539c       0x9c common/built-in.o
                0x000000004021539c                get_local_var
 .text.set_local_var
                0x0000000040215438      0x1a4 common/built-in.o
                0x0000000040215438                set_local_var
 .text.insert_var_value_sub
                0x00000000402155dc      0x2c0 common/built-in.o
 .text.parse_string_outer
                0x000000004021589c       0xe4 common/built-in.o
                0x000000004021589c                parse_string_outer
 .text.run_list_real
                0x0000000040215980      0x720 common/built-in.o
 .text.parse_stream_outer
                0x00000000402160a0      0x660 common/built-in.o
 .text.parse_file_outer
                0x0000000040216700       0x40 common/built-in.o
                0x0000000040216700                parse_file_outer
 .text.u_boot_hush_start
                0x0000000040216740       0x58 common/built-in.o
                0x0000000040216740                u_boot_hush_start
 .text.bootdelay_process
                0x0000000040216798      0x1ac common/built-in.o
                0x0000000040216798                bootdelay_process
 .text.autoboot_command
                0x0000000040216944      0x114 common/built-in.o
                0x0000000040216944                autoboot_command
 .text.log_init
                0x0000000040216a58       0x10 common/built-in.o
 .text.display_text_info
                0x0000000040216a68        0x8 common/built-in.o
 .text.setup_mon_len
                0x0000000040216a70       0x20 common/built-in.o
 .text.reserve_round_4k
                0x0000000040216a90       0x14 common/built-in.o
 .text.reserve_uboot
                0x0000000040216aa4       0x38 common/built-in.o
 .text.reserve_malloc
                0x0000000040216adc       0x14 common/built-in.o
 .text.reserve_global_data
                0x0000000040216af0       0x1c common/built-in.o
 .text.reserve_fdt
                0x0000000040216b0c       0x48 common/built-in.o
 .text.dram_init_banksize
                0x0000000040216b54       0x34 common/built-in.o
                0x0000000040216b54                dram_init_banksize
 .text.reserve_mmu
                0x0000000040216b88       0x4c common/built-in.o
                0x0000000040216b88                reserve_mmu
 .text.setup_reloc
                0x0000000040216bd4       0x48 common/built-in.o
 .text.reloc_fdt
                0x0000000040216c1c       0x44 common/built-in.o
 .text.reserve_board
                0x0000000040216c60       0x48 common/built-in.o
 .text.announce_dram_init
                0x0000000040216ca8       0x20 common/built-in.o
 .text.init_baud_rate
                0x0000000040216cc8       0x30 common/built-in.o
 .text.initf_dm
                0x0000000040216cf8        0x8 common/built-in.o
 .text.initf_bootstage
                0x0000000040216d00       0x1c common/built-in.o
 .text.arch_cpu_init_dm
                0x0000000040216d1c        0x8 common/built-in.o
                0x0000000040216d1c                arch_cpu_init_dm
 .text.setup_spl_handoff
                0x0000000040216d24        0x8 common/built-in.o
 .text.mach_cpu_init
                0x0000000040216d2c        0x8 common/built-in.o
                0x0000000040216d2c                mach_cpu_init
 .text.reserve_video
                0x0000000040216d34        0x8 common/built-in.o
 .text.reserve_trace
                0x0000000040216d3c        0x8 common/built-in.o
 .text.setup_machine
                0x0000000040216d44        0x8 common/built-in.o
 .text.reserve_bootstage
                0x0000000040216d4c        0x8 common/built-in.o
 .text.reserve_bloblist
                0x0000000040216d54        0x8 common/built-in.o
 .text.display_new_sp
                0x0000000040216d5c        0x8 common/built-in.o
 .text.reloc_bootstage
                0x0000000040216d64        0x8 common/built-in.o
 .text.reloc_bloblist
                0x0000000040216d6c        0x8 common/built-in.o
 .text.initf_console_record
                0x0000000040216d74        0x8 common/built-in.o
 .text.reserve_arch
                0x0000000040216d7c        0x8 common/built-in.o
                0x0000000040216d7c                reserve_arch
 .text.board_add_ram_info
                0x0000000040216d84        0x4 common/built-in.o
                0x0000000040216d84                board_add_ram_info
 .text.show_dram_config
                0x0000000040216d88       0x58 common/built-in.o
 .text.board_get_usable_ram_top
                0x0000000040216de0       0x20 common/built-in.o
                0x0000000040216de0                board_get_usable_ram_top
 .text.setup_dest_addr
                0x0000000040216e00       0x4c common/built-in.o
 .text.reserve_stacks
                0x0000000040216e4c       0x1c common/built-in.o
 .text.board_init_f
                0x0000000040216e68       0x84 common/built-in.o
                0x0000000040216e68                board_init_f
 .text.initr_trace
                0x0000000040216eec        0x8 common/built-in.o
 .text.initr_reloc
                0x0000000040216ef4       0x18 common/built-in.o
 .text.run_main_loop
                0x0000000040216f0c       0x10 common/built-in.o
 .text.initr_check_fastboot
                0x0000000040216f1c       0x18 common/built-in.o
 .text.initr_net
                0x0000000040216f34       0x24 common/built-in.o
 .text.initr_fastboot_setup
                0x0000000040216f58       0x18 common/built-in.o
 .text.initr_ethaddr
                0x0000000040216f70       0x28 common/built-in.o
 .text.initr_enable_interrupts
                0x0000000040216f98       0x18 common/built-in.o
 .text.initr_jumptable
                0x0000000040216fb0       0x18 common/built-in.o
 .text.initr_env
                0x0000000040216fc8       0x74 common/built-in.o
 .text.initr_mmc
                0x000000004021703c       0x28 common/built-in.o
 .text.initr_serial
                0x0000000040217064       0x18 common/built-in.o
 .text.initr_dm
                0x000000004021707c       0x14 common/built-in.o
 .text.initr_bootstage
                0x0000000040217090       0x1c common/built-in.o
 .text.initr_malloc
                0x00000000402170ac       0x24 common/built-in.o
 .text.initr_reloc_global_data
                0x00000000402170d0       0x4c common/built-in.o
 .text.initr_caches
                0x000000004021711c       0x18 common/built-in.o
 .text.bootstage_relocate
                0x0000000040217134        0x8 common/built-in.o
 .text.initr_barrier
                0x000000004021713c        0x8 common/built-in.o
 .text.initr_console_record
                0x0000000040217144        0x8 common/built-in.o
 .text.power_init_board
                0x000000004021714c        0x8 common/built-in.o
                0x000000004021714c                power_init_board
 .text.initr_announce
                0x0000000040217154        0x8 common/built-in.o
 .text.cpu_secondary_init_r
                0x000000004021715c        0x4 common/built-in.o
                0x000000004021715c                cpu_secondary_init_r
 .text.initr_secondary_cpu
                0x0000000040217160       0x18 common/built-in.o
 .text.board_init_r
                0x0000000040217178       0x78 common/built-in.o
                0x0000000040217178                board_init_r
 .text.checkboard
                0x00000000402171f0        0x8 common/built-in.o
                0x00000000402171f0                checkboard
 .text.show_board_info
                0x00000000402171f8       0x3c common/built-in.o
                0x00000000402171f8                show_board_info
 .text.bootm_find_images
                0x0000000040217234       0xcc common/built-in.o
                0x0000000040217234                bootm_find_images
 .text.bootm_decomp_image
                0x0000000040217300      0x1a8 common/built-in.o
                0x0000000040217300                bootm_decomp_image
 .text.bootm_disable_interrupts
                0x00000000402174a8       0x28 common/built-in.o
                0x00000000402174a8                bootm_disable_interrupts
 .text.do_bootm_states
                0x00000000402174d0      0x8e8 common/built-in.o
                0x00000000402174d0                do_bootm_states
 .text.do_bootm_rtems
                0x0000000040217db8       0x60 common/built-in.o
 .text.do_bootm_vxworks
                0x0000000040217e18      0x138 common/built-in.o
                0x0000000040217e18                do_bootm_vxworks
 .text.do_bootm_standalone
                0x0000000040217f50       0x74 common/built-in.o
 .text.do_bootm_qnxelf
                0x0000000040217fc4       0x8c common/built-in.o
 .text.do_bootm_plan9
                0x0000000040218050       0xf4 common/built-in.o
 .text.board_preboot_os
                0x0000000040218144        0x4 common/built-in.o
                0x0000000040218144                board_preboot_os
 .text.boot_selected_os
                0x0000000040218148       0x7c common/built-in.o
                0x0000000040218148                boot_selected_os
 .text.bootm_os_get_boot_func
                0x00000000402181c4       0x10 common/built-in.o
                0x00000000402181c4                bootm_os_get_boot_func
 .text.of_bus_default_map
                0x00000000402181d4       0xa8 common/built-in.o
 .text.of_bus_default_translate
                0x000000004021827c       0xb8 common/built-in.o
 .text.fdt_support_default_count_cells
                0x0000000040218334       0x70 common/built-in.o
                0x0000000040218334                fdt_support_default_count_cells
 .text.fdt_find_and_setprop
                0x00000000402183a4       0x94 common/built-in.o
                0x00000000402183a4                fdt_find_and_setprop
 .text.fdt_find_or_add_subnode
                0x0000000040218438       0x74 common/built-in.o
                0x0000000040218438                fdt_find_or_add_subnode
 .text.fdt_root
                0x00000000402184ac       0x98 common/built-in.o
                0x00000000402184ac                fdt_root
 .text.fdt_initrd
                0x0000000040218544      0x1b4 common/built-in.o
                0x0000000040218544                fdt_initrd
 .text.fdt_chosen
                0x00000000402186f8       0xbc common/built-in.o
                0x00000000402186f8                fdt_chosen
 .text.do_fixup_by_path
                0x00000000402187b4       0x4c common/built-in.o
                0x00000000402187b4                do_fixup_by_path
 .text.fdt_fixup_memory_banks
                0x0000000040218800      0x234 common/built-in.o
                0x0000000040218800                fdt_fixup_memory_banks
 .text.fdt_fixup_memory
                0x0000000040218a34       0x24 common/built-in.o
                0x0000000040218a34                fdt_fixup_memory
 .text.fdt_fixup_ethernet
                0x0000000040218a58      0x1ac common/built-in.o
                0x0000000040218a58                fdt_fixup_ethernet
 .text.fdt_shrink_to_minimum
                0x0000000040218c04       0xc8 common/built-in.o
                0x0000000040218c04                fdt_shrink_to_minimum
 .text.fdt_increase_size
                0x0000000040218ccc       0x14 common/built-in.o
                0x0000000040218ccc                fdt_increase_size
 .text.fdt_translate_address
                0x0000000040218ce0      0x268 common/built-in.o
                0x0000000040218ce0                fdt_translate_address
 .text.miiphy_get_dev_by_name
                0x0000000040218f48       0x68 common/built-in.o
                0x0000000040218f48                miiphy_get_dev_by_name
 .text.miiphy_init
                0x0000000040218fb0       0x1c common/built-in.o
                0x0000000040218fb0                miiphy_init
 .text.mdio_alloc
                0x0000000040218fcc       0x3c common/built-in.o
                0x0000000040218fcc                mdio_alloc
 .text.mdio_free
                0x0000000040219008        0x4 common/built-in.o
                0x0000000040219008                mdio_free
 .text.mdio_register
                0x000000004021900c       0x8c common/built-in.o
                0x000000004021900c                mdio_register
 .text.mdio_unregister
                0x0000000040219098       0x30 common/built-in.o
                0x0000000040219098                mdio_unregister
 .text.mdio_list_devices
                0x00000000402190c8       0xc8 common/built-in.o
                0x00000000402190c8                mdio_list_devices
 .text.miiphy_set_current_dev
                0x0000000040219190       0x48 common/built-in.o
                0x0000000040219190                miiphy_set_current_dev
 .text.miiphy_get_active_dev
                0x00000000402191d8       0x60 common/built-in.o
 .text.mdio_get_current_dev
                0x0000000040219238        0xc common/built-in.o
                0x0000000040219238                mdio_get_current_dev
 .text.mdio_phydev_for_ethname
                0x0000000040219244       0xa0 common/built-in.o
                0x0000000040219244                mdio_phydev_for_ethname
 .text.miiphy_get_current_dev
                0x00000000402192e4       0x14 common/built-in.o
                0x00000000402192e4                miiphy_get_current_dev
 .text.miiphy_read
                0x00000000402192f8       0x5c common/built-in.o
                0x00000000402192f8                miiphy_read
 .text.miiphy_write
                0x0000000040219354       0x5c common/built-in.o
                0x0000000040219354                miiphy_write
 .text.miiphy_listdev
                0x00000000402193b0       0x90 common/built-in.o
                0x00000000402193b0                miiphy_listdev
 .text.miiphy_info
                0x0000000040219440       0xa0 common/built-in.o
                0x0000000040219440                miiphy_info
 .text.miiphy_is_1000base_x
                0x00000000402194e0       0x40 common/built-in.o
                0x00000000402194e0                miiphy_is_1000base_x
 .text.miiphy_speed
                0x0000000040219520      0x11c common/built-in.o
                0x0000000040219520                miiphy_speed
 .text.miiphy_duplex
                0x000000004021963c      0x140 common/built-in.o
                0x000000004021963c                miiphy_duplex
 .text.usb_set_maxpacket_ep
                0x000000004021977c       0x84 common/built-in.o
 .text.usb_control_msg
                0x0000000040219800       0xa0 common/built-in.o
                0x0000000040219800                usb_control_msg
 .text.usb_get_descriptor
                0x00000000402198a0       0x5c common/built-in.o
 .text.get_descriptor_len
                0x00000000402198fc       0xa4 common/built-in.o
 .text.usb_setup_descriptor
                0x00000000402199a0       0xec common/built-in.o
 .text.usb_get_string
                0x0000000040219a8c       0xa4 common/built-in.o
 .text.usb_string_sub
                0x0000000040219b30      0x118 common/built-in.o
 .text.usb_bulk_msg
                0x0000000040219c48       0x80 common/built-in.o
                0x0000000040219c48                usb_bulk_msg
 .text.usb_maxpacket
                0x0000000040219cc8       0x1c common/built-in.o
                0x0000000040219cc8                usb_maxpacket
 .text.usb_clear_halt
                0x0000000040219ce4       0xa0 common/built-in.o
                0x0000000040219ce4                usb_clear_halt
 .text.usb_get_configuration_len
                0x0000000040219d84       0x78 common/built-in.o
                0x0000000040219d84                usb_get_configuration_len
 .text.usb_get_configuration_no
                0x0000000040219dfc       0x40 common/built-in.o
                0x0000000040219dfc                usb_get_configuration_no
 .text.usb_set_interface
                0x0000000040219e3c       0xc0 common/built-in.o
                0x0000000040219e3c                usb_set_interface
 .text.usb_string
                0x0000000040219efc      0x110 common/built-in.o
                0x0000000040219efc                usb_string
 .text.usb_select_config
                0x000000004021a00c      0x4ac common/built-in.o
                0x000000004021a00c                usb_select_config
 .text.usb_setup_device
                0x000000004021a4b8      0x114 common/built-in.o
                0x000000004021a4b8                usb_setup_device
 .text.usb_device_has_child_on_port
                0x000000004021a5cc        0x8 common/built-in.o
                0x000000004021a5cc                usb_device_has_child_on_port
 .text.usb_set_port_feature
                0x000000004021a5d4       0x4c common/built-in.o
 .text.usb_clear_port_feature
                0x000000004021a620       0x4c common/built-in.o
 .text.usb_get_hub_descriptor
                0x000000004021a66c       0x64 common/built-in.o
 .text.usb_hub_reset_devices
                0x000000004021a6d0        0x4 common/built-in.o
                0x000000004021a6d0                usb_hub_reset_devices
 .text.usb_hub_is_root_hub
                0x000000004021a6d4       0x20 common/built-in.o
                0x000000004021a6d4                usb_hub_is_root_hub
 .text.usb_get_port_status
                0x000000004021a6f4       0xc8 common/built-in.o
                0x000000004021a6f4                usb_get_port_status
 .text.usb_hub_port_connect_change
                0x000000004021a7bc      0x180 common/built-in.o
                0x000000004021a7bc                usb_hub_port_connect_change
 .text.usb_hub_configure
                0x000000004021a93c      0x5a0 common/built-in.o
 .text.usb_hub_scan
                0x000000004021aedc       0x14 common/built-in.o
                0x000000004021aedc                usb_hub_scan
 .text.usb_hub_post_probe
                0x000000004021aef0        0x4 common/built-in.o
 .text.usb_stor_irq
                0x000000004021aef4       0x18 common/built-in.o
 .text.usb_stor_BBB_reset
                0x000000004021af0c       0xec common/built-in.o
 .text.usb_stor_CB_reset
                0x000000004021aff8       0xd4 common/built-in.o
 .text.usb_stor_BBB_clear_endpt_stall.isra.0
                0x000000004021b0cc       0x4c common/built-in.o
 .text.usb_stor_BBB_transport
                0x000000004021b118      0x244 common/built-in.o
 .text.usb_stor_CB_comdat
                0x000000004021b35c      0x1ec common/built-in.o
 .text.usb_stor_CBI_get_status.isra.2
                0x000000004021b548       0xd0 common/built-in.o
 .text.usb_stor_CB_transport
                0x000000004021b618      0x1f4 common/built-in.o
 .text.usb_request_sense.constprop.11
                0x000000004021b80c       0x8c common/built-in.o
 .text.usb_stor_read
                0x000000004021b898      0x170 common/built-in.o
 .text.usb_stor_write
                0x000000004021ba08      0x170 common/built-in.o
 .text.usb_stor_info
                0x000000004021bb78       0x88 common/built-in.o
                0x000000004021bb78                usb_stor_info
 .text.usb_stor_reset
                0x000000004021bc00        0xc common/built-in.o
                0x000000004021bc00                usb_stor_reset
 .text.usb_stor_scan
                0x000000004021bc0c       0x4c common/built-in.o
                0x000000004021bc0c                usb_stor_scan
 .text.usb_storage_probe
                0x000000004021bc58      0x268 common/built-in.o
                0x000000004021bc58                usb_storage_probe
 .text.usb_stor_get_info
                0x000000004021bec0      0x2e8 common/built-in.o
                0x000000004021bec0                usb_stor_get_info
 .text.usb_mass_storage_probe
                0x000000004021c1a8      0x18c common/built-in.o
 .text.delete_char.part.0
                0x000000004021c334       0xfc common/built-in.o
 .text.cread_add_char
                0x000000004021c430      0x100 common/built-in.o
 .text.cli_readline_into_buffer
                0x000000004021c530      0x924 common/built-in.o
                0x000000004021c530                cli_readline_into_buffer
 .text.cli_readline
                0x000000004021ce54       0x14 common/built-in.o
                0x000000004021ce54                cli_readline
 .text.console_setfile
                0x000000004021ce68       0xbc common/built-in.o
 .text.fgetc.part.0
                0x000000004021cf24       0x3c common/built-in.o
 .text.getc     0x000000004021cf60       0x24 common/built-in.o
                0x000000004021cf60                getc
 .text.putc     0x000000004021cf84       0x34 common/built-in.o
                0x000000004021cf84                putc
 .text.puts     0x000000004021cfb8       0x30 common/built-in.o
                0x000000004021cfb8                puts
 .text.ftstc    0x000000004021cfe8       0x24 common/built-in.o
                0x000000004021cfe8                ftstc
 .text.tstc     0x000000004021d00c       0x24 common/built-in.o
                0x000000004021d00c                tstc
 .text.fputs    0x000000004021d030       0x20 common/built-in.o
                0x000000004021d030                fputs
 .text.ctrlc    0x000000004021d050       0x54 common/built-in.o
                0x000000004021d050                ctrlc
 .text.confirm_yesno
                0x000000004021d0a4       0xd8 common/built-in.o
                0x000000004021d0a4                confirm_yesno
 .text.disable_ctrlc
                0x000000004021d17c       0x14 common/built-in.o
                0x000000004021d17c                disable_ctrlc
 .text.had_ctrlc
                0x000000004021d190        0xc common/built-in.o
                0x000000004021d190                had_ctrlc
 .text.clear_ctrlc
                0x000000004021d19c        0xc common/built-in.o
                0x000000004021d19c                clear_ctrlc
 .text.search_device
                0x000000004021d1a8       0x34 common/built-in.o
                0x000000004021d1a8                search_device
 .text.console_assign
                0x000000004021d1dc       0x68 common/built-in.o
                0x000000004021d1dc                console_assign
 .text.on_console
                0x000000004021d244       0xc0 common/built-in.o
 .text.console_init_f
                0x000000004021d304       0x10 common/built-in.o
                0x000000004021d304                console_init_f
 .text.stdio_print_current_devices
                0x000000004021d314       0xbc common/built-in.o
                0x000000004021d314                stdio_print_current_devices
 .text.console_init_r
                0x000000004021d3d0       0xe0 common/built-in.o
                0x000000004021d3d0                console_init_r
 .text.sbrk     0x000000004021d4b0       0x74 common/built-in.o
                0x000000004021d4b0                sbrk
 .text.mem_malloc_init
                0x000000004021d524       0x28 common/built-in.o
                0x000000004021d524                mem_malloc_init
 .text.malloc_trim
                0x000000004021d54c       0xd8 common/built-in.o
                0x000000004021d54c                malloc_trim
 .text.free     0x000000004021d624      0x21c common/built-in.o
                0x000000004021d624                free
 .text.malloc   0x000000004021d840      0x628 common/built-in.o
                0x000000004021d840                malloc
 .text.calloc   0x000000004021de68      0x10c common/built-in.o
                0x000000004021de68                calloc
 .text.realloc  0x000000004021df74      0x460 common/built-in.o
                0x000000004021df74                realloc
 .text.memalign
                0x000000004021e3d4      0x1c0 common/built-in.o
                0x000000004021e3d4                memalign
 .text.initf_malloc
                0x000000004021e594       0x18 common/built-in.o
                0x000000004021e594                initf_malloc
 .text.alloc_simple
                0x000000004021e5ac       0x54 common/built-in.o
 .text.malloc_simple
                0x000000004021e600        0x8 common/built-in.o
                0x000000004021e600                malloc_simple
 .text.on_loadaddr
                0x000000004021e608       0x40 common/built-in.o
 .text.image_check_hcrc
                0x000000004021e648       0x50 common/built-in.o
                0x000000004021e648                image_check_hcrc
 .text.image_check_dcrc
                0x000000004021e698       0x44 common/built-in.o
                0x000000004021e698                image_check_dcrc
 .text.image_multi_count
                0x000000004021e6dc       0x1c common/built-in.o
                0x000000004021e6dc                image_multi_count
 .text.image_multi_getimg
                0x000000004021e6f8       0x84 common/built-in.o
                0x000000004021e6f8                image_multi_getimg
 .text.env_get_bootm_low
                0x000000004021e77c       0x34 common/built-in.o
                0x000000004021e77c                env_get_bootm_low
 .text.env_get_bootm_size
                0x000000004021e7b0       0x78 common/built-in.o
                0x000000004021e7b0                env_get_bootm_size
 .text.env_get_bootm_mapsize
                0x000000004021e828       0x30 common/built-in.o
                0x000000004021e828                env_get_bootm_mapsize
 .text.memmove_wd
                0x000000004021e858       0x10 common/built-in.o
                0x000000004021e858                memmove_wd
 .text.genimg_print_size
                0x000000004021e868       0x38 common/built-in.o
                0x000000004021e868                genimg_print_size
 .text.get_table_entry
                0x000000004021e8a0       0x20 common/built-in.o
                0x000000004021e8a0                get_table_entry
 .text.get_table_entry_name
                0x000000004021e8c0       0x28 common/built-in.o
                0x000000004021e8c0                get_table_entry_name
 .text.genimg_get_os_name
                0x000000004021e8e8       0x18 common/built-in.o
                0x000000004021e8e8                genimg_get_os_name
 .text.genimg_get_arch_name
                0x000000004021e900       0x18 common/built-in.o
                0x000000004021e900                genimg_get_arch_name
 .text.genimg_get_type_name
                0x000000004021e918       0x18 common/built-in.o
                0x000000004021e918                genimg_get_type_name
 .text.genimg_get_comp_name
                0x000000004021e930       0x18 common/built-in.o
                0x000000004021e930                genimg_get_comp_name
 .text.image_print_contents
                0x000000004021e948      0x1c4 common/built-in.o
                0x000000004021e948                image_print_contents
 .text.get_table_entry_id
                0x000000004021eb0c       0x50 common/built-in.o
                0x000000004021eb0c                get_table_entry_id
 .text.genimg_get_os_id
                0x000000004021eb5c       0x18 common/built-in.o
                0x000000004021eb5c                genimg_get_os_id
 .text.genimg_get_arch_id
                0x000000004021eb74       0x18 common/built-in.o
                0x000000004021eb74                genimg_get_arch_id
 .text.genimg_get_type_id
                0x000000004021eb8c       0x18 common/built-in.o
                0x000000004021eb8c                genimg_get_type_id
 .text.genimg_get_comp_id
                0x000000004021eba4       0x18 common/built-in.o
                0x000000004021eba4                genimg_get_comp_id
 .text.genimg_get_kernel_addr_fit
                0x000000004021ebbc       0x7c common/built-in.o
                0x000000004021ebbc                genimg_get_kernel_addr_fit
 .text.genimg_get_format
                0x000000004021ec38       0x5c common/built-in.o
                0x000000004021ec38                genimg_get_format
 .text.genimg_has_config
                0x000000004021ec94       0x10 common/built-in.o
                0x000000004021ec94                genimg_has_config
 .text.boot_get_ramdisk
                0x000000004021eca4      0x370 common/built-in.o
                0x000000004021eca4                boot_get_ramdisk
 .text.boot_ramdisk_high
                0x000000004021f014      0x138 common/built-in.o
                0x000000004021f014                boot_ramdisk_high
 .text.boot_get_setup
                0x000000004021f14c        0x4 common/built-in.o
                0x000000004021f14c                boot_get_setup
 .text.boot_get_loadable
                0x000000004021f150      0x19c common/built-in.o
                0x000000004021f150                boot_get_loadable
 .text.image_setup_linux
                0x000000004021f2ec       0x60 common/built-in.o
                0x000000004021f2ec                image_setup_linux
 .text.android_image_get_kernel
                0x000000004021f34c      0x57c common/built-in.o
                0x000000004021f34c                android_image_get_kernel
 .text.android_image_check_header
                0x000000004021f8c8       0x14 common/built-in.o
                0x000000004021f8c8                android_image_check_header
 .text.android_image_get_end
                0x000000004021f8dc       0xac common/built-in.o
                0x000000004021f8dc                android_image_get_end
 .text.android_image_get_kload
                0x000000004021f988       0x58 common/built-in.o
                0x000000004021f988                android_image_get_kload
 .text.android_image_get_ramdisk
                0x000000004021f9e0      0x128 common/built-in.o
                0x000000004021f9e0                android_image_get_ramdisk
 .text.android_image_get_second
                0x000000004021fb08      0x14c common/built-in.o
                0x000000004021fb08                android_image_get_second
 .text.android_print_contents
                0x000000004021fc54      0x210 common/built-in.o
                0x000000004021fc54                android_print_contents
 .text.fdt_error
                0x000000004021fe64       0x38 common/built-in.o
 .text.boot_fdt_reserve_region
                0x000000004021fe9c       0x50 common/built-in.o
 .text.boot_fdt_add_mem_rsv_regions
                0x000000004021feec       0xf4 common/built-in.o
                0x000000004021feec                boot_fdt_add_mem_rsv_regions
 .text.boot_relocate_fdt
                0x000000004021ffe0      0x1b4 common/built-in.o
                0x000000004021ffe0                boot_relocate_fdt
 .text.boot_get_fdt
                0x0000000040220194      0x3fc common/built-in.o
                0x0000000040220194                boot_get_fdt
 .text.ft_verify_fdt
                0x0000000040220590        0x8 common/built-in.o
                0x0000000040220590                ft_verify_fdt
 .text.image_setup_libfdt
                0x0000000040220598      0x148 common/built-in.o
                0x0000000040220598                image_setup_libfdt
 .text.fit_image_get_address
                0x00000000402206e0       0x84 common/built-in.o
 .text.fit_parse_conf
                0x0000000040220764       0x78 common/built-in.o
                0x0000000040220764                fit_parse_conf
 .text.fit_parse_subimage
                0x00000000402207dc       0x78 common/built-in.o
                0x00000000402207dc                fit_parse_subimage
 .text.fit_get_desc
                0x0000000040220854       0x38 common/built-in.o
                0x0000000040220854                fit_get_desc
 .text.fit_image_get_node
                0x000000004022088c       0x48 common/built-in.o
                0x000000004022088c                fit_image_get_node
 .text.fit_image_get_os
                0x00000000402208d4       0x4c common/built-in.o
                0x00000000402208d4                fit_image_get_os
 .text.fit_image_get_arch
                0x0000000040220920       0x4c common/built-in.o
                0x0000000040220920                fit_image_get_arch
 .text.fit_image_get_type
                0x000000004022096c       0x4c common/built-in.o
                0x000000004022096c                fit_image_get_type
 .text.fit_image_get_comp
                0x00000000402209b8       0x4c common/built-in.o
                0x00000000402209b8                fit_image_get_comp
 .text.fit_image_get_load
                0x0000000040220a04       0x10 common/built-in.o
                0x0000000040220a04                fit_image_get_load
 .text.fit_image_get_entry
                0x0000000040220a14       0x10 common/built-in.o
                0x0000000040220a14                fit_image_get_entry
 .text.fit_image_get_data
                0x0000000040220a24       0x50 common/built-in.o
                0x0000000040220a24                fit_image_get_data
 .text.fit_image_get_data_offset
                0x0000000040220a74       0x48 common/built-in.o
                0x0000000040220a74                fit_image_get_data_offset
 .text.fit_image_get_data_position
                0x0000000040220abc       0x48 common/built-in.o
                0x0000000040220abc                fit_image_get_data_position
 .text.fit_image_get_data_size
                0x0000000040220b04       0x48 common/built-in.o
                0x0000000040220b04                fit_image_get_data_size
 .text.fit_image_get_data_and_size
                0x0000000040220b4c       0xa8 common/built-in.o
                0x0000000040220b4c                fit_image_get_data_and_size
 .text.fit_image_hash_get_algo
                0x0000000040220bf4       0x38 common/built-in.o
                0x0000000040220bf4                fit_image_hash_get_algo
 .text.fit_image_hash_get_value
                0x0000000040220c2c       0x50 common/built-in.o
                0x0000000040220c2c                fit_image_hash_get_value
 .text.fit_image_print_data
                0x0000000040220c7c      0x190 common/built-in.o
 .text.fit_image_print_verification_data
                0x0000000040220e0c       0xbc common/built-in.o
 .text.fit_image_print
                0x0000000040220ec8      0x2fc common/built-in.o
                0x0000000040220ec8                fit_image_print
 .text.fit_print_contents
                0x00000000402211c4      0x454 common/built-in.o
                0x00000000402211c4                fit_print_contents
 .text.fit_get_end
                0x0000000040221618       0x10 common/built-in.o
                0x0000000040221618                fit_get_end
 .text.calculate_hash
                0x0000000040221628      0x11c common/built-in.o
                0x0000000040221628                calculate_hash
 .text.fit_image_verify_with_data
                0x0000000040221744      0x1f4 common/built-in.o
                0x0000000040221744                fit_image_verify_with_data
 .text.fit_image_verify
                0x0000000040221938       0x90 common/built-in.o
                0x0000000040221938                fit_image_verify
 .text.fit_all_image_verify
                0x00000000402219c8      0x110 common/built-in.o
                0x00000000402219c8                fit_all_image_verify
 .text.fit_image_check_os
                0x0000000040221ad8       0x3c common/built-in.o
                0x0000000040221ad8                fit_image_check_os
 .text.fit_image_check_arch
                0x0000000040221b14       0x64 common/built-in.o
                0x0000000040221b14                fit_image_check_arch
 .text.fit_image_check_type
                0x0000000040221b78       0x3c common/built-in.o
                0x0000000040221b78                fit_image_check_type
 .text.fit_image_check_comp
                0x0000000040221bb4       0x3c common/built-in.o
                0x0000000040221bb4                fit_image_check_comp
 .text.fit_check_format
                0x0000000040221bf0       0x54 common/built-in.o
                0x0000000040221bf0                fit_check_format
 .text.fit_conf_get_node
                0x0000000040221c44       0xdc common/built-in.o
                0x0000000040221c44                fit_conf_get_node
 .text.fit_conf_get_prop_node_index
                0x0000000040221d20       0x3c common/built-in.o
                0x0000000040221d20                fit_conf_get_prop_node_index
 .text.fit_conf_get_prop_node
                0x0000000040221d5c        0x8 common/built-in.o
                0x0000000040221d5c                fit_conf_get_prop_node
 .text.fit_get_node_from_config
                0x0000000040221d64       0x54 common/built-in.o
                0x0000000040221d64                fit_get_node_from_config
 .text.fit_image_load
                0x0000000040221db8      0x56c common/built-in.o
                0x0000000040221db8                fit_image_load
 .text.boot_get_setup_fit
                0x0000000040222324       0x78 common/built-in.o
                0x0000000040222324                boot_get_setup_fit
 .text.boot_get_fdt_fit
                0x000000004022239c      0x188 common/built-in.o
                0x000000004022239c                boot_get_fdt_fit
 .text.get_effective_memsize
                0x0000000040222524        0x8 common/built-in.o
                0x0000000040222524                get_effective_memsize
 .text.stdio_serial_tstc
                0x000000004022252c        0x4 common/built-in.o
 .text.stdio_serial_getc
                0x0000000040222530        0x4 common/built-in.o
 .text.stdio_serial_puts
                0x0000000040222534        0x8 common/built-in.o
 .text.stdio_serial_putc
                0x000000004022253c        0x8 common/built-in.o
 .text.stdio_get_list
                0x0000000040222544       0x10 common/built-in.o
                0x0000000040222544                stdio_get_list
 .text.stdio_get_by_name
                0x0000000040222554       0x6c common/built-in.o
                0x0000000040222554                stdio_get_by_name
 .text.stdio_clone
                0x00000000402225c0       0x4c common/built-in.o
                0x00000000402225c0                stdio_clone
 .text.stdio_register_dev
                0x000000004022260c       0x58 common/built-in.o
                0x000000004022260c                stdio_register_dev
 .text.stdio_register
                0x0000000040222664        0x8 common/built-in.o
                0x0000000040222664                stdio_register
 .text.stdio_init_tables
                0x000000004022266c       0x18 common/built-in.o
                0x000000004022266c                stdio_init_tables
 .text.stdio_add_devices
                0x0000000040222684       0x78 common/built-in.o
                0x0000000040222684                stdio_add_devices
 .text.run_command
                0x00000000402226fc       0x14 common/built-in.o
                0x00000000402226fc                run_command
 .text.run_command_list
                0x0000000040222710       0x90 common/built-in.o
                0x0000000040222710                run_command_list
 .text.do_run   0x00000000402227a0       0x88 common/built-in.o
                0x00000000402227a0                do_run
 .text.cli_process_fdt
                0x0000000040222828       0x50 common/built-in.o
                0x0000000040222828                cli_process_fdt
 .text.cli_secure_boot_cmd
                0x0000000040222878       0x74 common/built-in.o
                0x0000000040222878                cli_secure_boot_cmd
 .text.cli_loop
                0x00000000402228ec       0x10 common/built-in.o
                0x00000000402228ec                cli_loop
 .text.cli_init
                0x00000000402228fc        0x4 common/built-in.o
                0x00000000402228fc                cli_init
 .text.find_cmd_tbl
                0x0000000040222900       0xc0 common/built-in.o
                0x0000000040222900                find_cmd_tbl
 .text.find_cmd
                0x00000000402229c0       0x30 common/built-in.o
                0x00000000402229c0                find_cmd
 .text.cmd_usage
                0x00000000402229f0       0x68 common/built-in.o
                0x00000000402229f0                cmd_usage
 .text._do_help
                0x0000000040222a58      0x188 common/built-in.o
                0x0000000040222a58                _do_help
 .text.var_complete
                0x0000000040222be0       0x80 common/built-in.o
                0x0000000040222be0                var_complete
 .text.complete_subcmdv
                0x0000000040222c60      0x1b4 common/built-in.o
                0x0000000040222c60                complete_subcmdv
 .text.cmd_auto_complete
                0x0000000040222e14      0x3f4 common/built-in.o
                0x0000000040222e14                cmd_auto_complete
 .text.cmd_get_data_size
                0x0000000040223208       0x90 common/built-in.o
                0x0000000040223208                cmd_get_data_size
 .text.cmd_always_repeatable
                0x0000000040223298       0x10 common/built-in.o
                0x0000000040223298                cmd_always_repeatable
 .text.cmd_never_repeatable
                0x00000000402232a8        0xc common/built-in.o
                0x00000000402232a8                cmd_never_repeatable
 .text.cmd_process
                0x00000000402232b4      0x108 common/built-in.o
                0x00000000402232b4                cmd_process
 .text.cmd_process_error
                0x00000000402233bc       0x40 common/built-in.o
                0x00000000402233bc                cmd_process_error
 .text.hex1_bin
                0x00000000402233fc       0x44 common/built-in.o
 .text.hex2_bin
                0x0000000040223440       0x40 common/built-in.o
 .text.srec_decode
                0x0000000040223480      0x228 common/built-in.o
                0x0000000040223480                srec_decode
 .text.CYGACC_COMM_IF_GETC_TIMEOUT.isra.0
                0x00000000402236a8       0x54 common/built-in.o
 .text.xyzModem_flush
                0x00000000402236fc       0x1c common/built-in.o
 .text.xyzModem_get_hdr
                0x0000000040223718      0x200 common/built-in.o
 .text.xyzModem_stream_open
                0x0000000040223918      0x23c common/built-in.o
                0x0000000040223918                xyzModem_stream_open
 .text.xyzModem_stream_read
                0x0000000040223b54      0x254 common/built-in.o
                0x0000000040223b54                xyzModem_stream_read
 .text.xyzModem_stream_close
                0x0000000040223da8       0x3c common/built-in.o
                0x0000000040223da8                xyzModem_stream_close
 .text.xyzModem_stream_terminate
                0x0000000040223de4       0xa4 common/built-in.o
                0x0000000040223de4                xyzModem_stream_terminate
 .text.xyzModem_error
                0x0000000040223e88       0x28 common/built-in.o
                0x0000000040223e88                xyzModem_error
 .text.part_driver_lookup_type
                0x0000000040223eb0       0xa8 disk/built-in.o
 .text.blk_get_dev
                0x0000000040223f58       0x38 disk/built-in.o
                0x0000000040223f58                blk_get_dev
 .text.dev_print
                0x0000000040223f90      0x1f0 disk/built-in.o
                0x0000000040223f90                dev_print
 .text.part_init
                0x0000000040224180       0x88 disk/built-in.o
                0x0000000040224180                part_init
 .text.part_print
                0x0000000040224208      0x138 disk/built-in.o
                0x0000000040224208                part_print
 .text.part_get_info
                0x0000000040224340       0x68 disk/built-in.o
                0x0000000040224340                part_get_info
 .text.part_get_info_whole_disk
                0x00000000402243a8       0x5c disk/built-in.o
                0x00000000402243a8                part_get_info_whole_disk
 .text.blk_get_device_by_str
                0x0000000040224404      0x144 disk/built-in.o
                0x0000000040224404                blk_get_device_by_str
 .text.blk_get_device_part_str
                0x0000000040224548      0x35c disk/built-in.o
                0x0000000040224548                blk_get_device_part_str
 .text.part_set_generic_name
                0x00000000402248a4       0x48 disk/built-in.o
                0x00000000402248a4                part_set_generic_name
 .text.test_block_type
                0x00000000402248ec       0x90 disk/built-in.o
 .text.print_partition_extended
                0x000000004022497c      0x25c disk/built-in.o
 .text.part_print_dos
                0x0000000040224bd8       0x3c disk/built-in.o
                0x0000000040224bd8                part_print_dos
 .text.part_test_dos
                0x0000000040224c14       0x78 disk/built-in.o
 .text.part_get_info_extended
                0x0000000040224c8c      0x2b4 disk/built-in.o
 .text.part_get_info_dos
                0x0000000040224f40       0x1c disk/built-in.o
                0x0000000040224f40                part_get_info_dos
 .text.print_efiname
                0x0000000040224f5c       0x54 disk/built-in.o
 .text.part_test_efi
                0x0000000040224fb0       0xb8 disk/built-in.o
 .text.validate_gpt_header
                0x0000000040225068      0x230 disk/built-in.o
 .text.is_gpt_valid
                0x0000000040225298      0x2d4 disk/built-in.o
 .text.is_pte_valid
                0x000000004022556c       0x64 disk/built-in.o
 .text.part_print_efi
                0x00000000402255d0      0x274 disk/built-in.o
                0x00000000402255d0                part_print_efi
 .text.part_get_info_efi
                0x0000000040225844      0x218 disk/built-in.o
                0x0000000040225844                part_get_info_efi
 .text.get_disk_guid
                0x0000000040225a5c       0xe0 disk/built-in.o
                0x0000000040225a5c                get_disk_guid
 .text.write_gpt_table
                0x0000000040225b3c      0x4fc disk/built-in.o
                0x0000000040225b3c                write_gpt_table
 .text.gpt_fill_pte
                0x0000000040226038      0x398 disk/built-in.o
                0x0000000040226038                gpt_fill_pte
 .text.gpt_fill_header
                0x00000000402263d0      0x250 disk/built-in.o
                0x00000000402263d0                gpt_fill_header
 .text.gpt_restore
                0x0000000040226620      0x150 disk/built-in.o
                0x0000000040226620                gpt_restore
 .text.gpt_verify_headers
                0x0000000040226770       0x98 disk/built-in.o
                0x0000000040226770                gpt_verify_headers
 .text.gpt_verify_partitions
                0x0000000040226808      0x1f4 disk/built-in.o
                0x0000000040226808                gpt_verify_partitions
 .text.is_valid_gpt_buf
                0x00000000402269fc       0xf0 disk/built-in.o
                0x00000000402269fc                is_valid_gpt_buf
 .text.write_backup_gpt_partitions
                0x0000000040226aec      0x39c disk/built-in.o
                0x0000000040226aec                write_backup_gpt_partitions
 .text.device_bind_common.isra.0
                0x0000000040226e88      0x310 drivers/built-in.o
 .text.alloc_priv
                0x0000000040227198       0x68 drivers/built-in.o
 .text.device_bind_with_driver_data
                0x0000000040227200       0x14 drivers/built-in.o
                0x0000000040227200                device_bind_with_driver_data
 .text.device_bind
                0x0000000040227214       0x10 drivers/built-in.o
                0x0000000040227214                device_bind
 .text.device_bind_by_name
                0x0000000040227224       0x7c drivers/built-in.o
                0x0000000040227224                device_bind_by_name
 .text.device_probe
                0x00000000402272a0      0x250 drivers/built-in.o
                0x00000000402272a0                device_probe
 .text.dev_get_platdata
                0x00000000402274f0       0x40 drivers/built-in.o
                0x00000000402274f0                dev_get_platdata
 .text.dev_get_parent_platdata
                0x0000000040227530       0x40 drivers/built-in.o
                0x0000000040227530                dev_get_parent_platdata
 .text.dev_get_uclass_platdata
                0x0000000040227570       0x40 drivers/built-in.o
                0x0000000040227570                dev_get_uclass_platdata
 .text.dev_get_priv
                0x00000000402275b0       0x40 drivers/built-in.o
                0x00000000402275b0                dev_get_priv
 .text.dev_get_uclass_priv
                0x00000000402275f0       0x40 drivers/built-in.o
                0x00000000402275f0                dev_get_uclass_priv
 .text.dev_get_parent_priv
                0x0000000040227630       0x40 drivers/built-in.o
                0x0000000040227630                dev_get_parent_priv
 .text.device_find_first_child
                0x0000000040227670       0x20 drivers/built-in.o
                0x0000000040227670                device_find_first_child
 .text.device_find_next_child
                0x0000000040227690       0x28 drivers/built-in.o
                0x0000000040227690                device_find_next_child
 .text.dev_get_parent
                0x00000000402276b8        0x8 drivers/built-in.o
                0x00000000402276b8                dev_get_parent
 .text.dev_get_driver_data
                0x00000000402276c0        0x8 drivers/built-in.o
                0x00000000402276c0                dev_get_driver_data
 .text.dev_get_driver_ops
                0x00000000402276c8       0x10 drivers/built-in.o
                0x00000000402276c8                dev_get_driver_ops
 .text.device_get_uclass_id
                0x00000000402276d8       0x10 drivers/built-in.o
                0x00000000402276d8                device_get_uclass_id
 .text.dev_get_uclass_name
                0x00000000402276e8       0x14 drivers/built-in.o
                0x00000000402276e8                dev_get_uclass_name
 .text.device_has_active_children
                0x00000000402276fc       0x3c drivers/built-in.o
                0x00000000402276fc                device_has_active_children
 .text.device_is_last_sibling
                0x0000000040227738       0x24 drivers/built-in.o
                0x0000000040227738                device_is_last_sibling
 .text.device_set_name_alloced
                0x000000004022775c       0x10 drivers/built-in.o
                0x000000004022775c                device_set_name_alloced
 .text.devfdt_get_addr_index
                0x000000004022776c       0xe4 drivers/built-in.o
                0x000000004022776c                devfdt_get_addr_index
 .text.devfdt_get_addr
                0x0000000040227850        0x8 drivers/built-in.o
                0x0000000040227850                devfdt_get_addr
 .text.lists_driver_lookup_name
                0x0000000040227858       0x68 drivers/built-in.o
                0x0000000040227858                lists_driver_lookup_name
 .text.lists_uclass_lookup
                0x00000000402278c0       0x58 drivers/built-in.o
                0x00000000402278c0                lists_uclass_lookup
 .text.lists_bind_drivers
                0x0000000040227918       0xb0 drivers/built-in.o
                0x0000000040227918                lists_bind_drivers
 .text.device_bind_driver_to_node
                0x00000000402279c8       0x68 drivers/built-in.o
                0x00000000402279c8                device_bind_driver_to_node
 .text.device_bind_driver
                0x0000000040227a30        0xc drivers/built-in.o
                0x0000000040227a30                device_bind_driver
 .text.lists_bind_fdt
                0x0000000040227a3c      0x1a4 drivers/built-in.o
                0x0000000040227a3c                lists_bind_fdt
 .text.dm_scan_fdt_node
                0x0000000040227be0      0x108 drivers/built-in.o
 .text.dm_scan_fdt_ofnode_path
                0x0000000040227ce8       0x48 drivers/built-in.o
 .text.dm_root  0x0000000040227d30       0x38 drivers/built-in.o
                0x0000000040227d30                dm_root
 .text.dm_get_translation_offset
                0x0000000040227d68       0x1c drivers/built-in.o
                0x0000000040227d68                dm_get_translation_offset
 .text.dm_init  0x0000000040227d84       0x64 drivers/built-in.o
                0x0000000040227d84                dm_init
 .text.dm_remove_devices_flags
                0x0000000040227de8       0x2c drivers/built-in.o
                0x0000000040227de8                dm_remove_devices_flags
 .text.dm_scan_platdata
                0x0000000040227e14       0x34 drivers/built-in.o
                0x0000000040227e14                dm_scan_platdata
 .text.dm_scan_fdt_dev
                0x0000000040227e48       0x28 drivers/built-in.o
                0x0000000040227e48                dm_scan_fdt_dev
 .text.dm_scan_fdt
                0x0000000040227e70       0x18 drivers/built-in.o
                0x0000000040227e70                dm_scan_fdt
 .text.dm_extended_scan_fdt
                0x0000000040227e88       0x58 drivers/built-in.o
                0x0000000040227e88                dm_extended_scan_fdt
 .text.dm_scan_other
                0x0000000040227ee0        0x8 drivers/built-in.o
                0x0000000040227ee0                dm_scan_other
 .text.dm_init_and_scan
                0x0000000040227ee8       0x54 drivers/built-in.o
                0x0000000040227ee8                dm_init_and_scan
 .text.uclass_find
                0x0000000040227f3c       0x48 drivers/built-in.o
                0x0000000040227f3c                uclass_find
 .text.uclass_get
                0x0000000040227f84      0x130 drivers/built-in.o
                0x0000000040227f84                uclass_get
 .text.dev_get_uclass_index
                0x00000000402280b4       0x58 drivers/built-in.o
                0x00000000402280b4                dev_get_uclass_index
 .text.uclass_find_device
                0x000000004022810c       0x78 drivers/built-in.o
                0x000000004022810c                uclass_find_device
 .text.uclass_find_first_device
                0x0000000040228184       0x50 drivers/built-in.o
                0x0000000040228184                uclass_find_first_device
 .text.uclass_find_next_device
                0x00000000402281d4       0x2c drivers/built-in.o
                0x00000000402281d4                uclass_find_next_device
 .text.uclass_find_device_by_name
                0x0000000040228200       0x98 drivers/built-in.o
                0x0000000040228200                uclass_find_device_by_name
 .text.uclass_find_device_by_seq
                0x0000000040228298       0x90 drivers/built-in.o
                0x0000000040228298                uclass_find_device_by_seq
 .text.uclass_find_device_by_ofnode
                0x0000000040228328       0x7c drivers/built-in.o
                0x0000000040228328                uclass_find_device_by_ofnode
 .text.uclass_find_device_by_phandle
                0x00000000402283a4       0xb4 drivers/built-in.o
                0x00000000402283a4                uclass_find_device_by_phandle
 .text.uclass_get_device_tail
                0x0000000040228458       0x40 drivers/built-in.o
                0x0000000040228458                uclass_get_device_tail
 .text.uclass_get_device
                0x0000000040228498       0x38 drivers/built-in.o
                0x0000000040228498                uclass_get_device
 .text.uclass_get_device_by_name
                0x00000000402284d0       0x38 drivers/built-in.o
                0x00000000402284d0                uclass_get_device_by_name
 .text.uclass_get_device_by_seq
                0x0000000040228508       0x68 drivers/built-in.o
                0x0000000040228508                uclass_get_device_by_seq
 .text.uclass_get_device_by_ofnode
                0x0000000040228570       0x38 drivers/built-in.o
                0x0000000040228570                uclass_get_device_by_ofnode
 .text.uclass_get_device_by_phandle_id
                0x00000000402285a8       0x90 drivers/built-in.o
                0x00000000402285a8                uclass_get_device_by_phandle_id
 .text.uclass_get_device_by_phandle
                0x0000000040228638       0x38 drivers/built-in.o
                0x0000000040228638                uclass_get_device_by_phandle
 .text.uclass_first_device
                0x0000000040228670       0x44 drivers/built-in.o
                0x0000000040228670                uclass_first_device
 .text.uclass_first_device_err
                0x00000000402286b4       0x34 drivers/built-in.o
                0x00000000402286b4                uclass_first_device_err
 .text.uclass_next_device
                0x00000000402286e8       0x44 drivers/built-in.o
                0x00000000402286e8                uclass_next_device
 .text.uclass_next_device_err
                0x000000004022872c       0x34 drivers/built-in.o
                0x000000004022872c                uclass_next_device_err
 .text.uclass_first_device_check
                0x0000000040228760       0x40 drivers/built-in.o
                0x0000000040228760                uclass_first_device_check
 .text.uclass_next_device_check
                0x00000000402287a0       0x30 drivers/built-in.o
                0x00000000402287a0                uclass_next_device_check
 .text.uclass_bind_device
                0x00000000402287d0       0x70 drivers/built-in.o
                0x00000000402287d0                uclass_bind_device
 .text.uclass_unbind_device
                0x0000000040228840       0x4c drivers/built-in.o
                0x0000000040228840                uclass_unbind_device
 .text.uclass_resolve_seq
                0x000000004022888c       0xb8 drivers/built-in.o
                0x000000004022888c                uclass_resolve_seq
 .text.uclass_pre_probe_device
                0x0000000040228944       0x64 drivers/built-in.o
                0x0000000040228944                uclass_pre_probe_device
 .text.uclass_post_probe_device
                0x00000000402289a8       0x64 drivers/built-in.o
                0x00000000402289a8                uclass_post_probe_device
 .text.uclass_pre_remove_device
                0x0000000040228a0c       0x1c drivers/built-in.o
                0x0000000040228a0c                uclass_pre_remove_device
 .text.dm_warn  0x0000000040228a28       0x54 drivers/built-in.o
                0x0000000040228a28                dm_warn
 .text.dm_ofnode_pre_reloc
                0x0000000040228a7c       0x64 drivers/built-in.o
                0x0000000040228a7c                dm_ofnode_pre_reloc
 .text.device_unbind
                0x0000000040228ae0       0xe8 drivers/built-in.o
                0x0000000040228ae0                device_unbind
 .text.device_chld_unbind
                0x0000000040228bc8       0x78 drivers/built-in.o
                0x0000000040228bc8                device_chld_unbind
 .text.device_free
                0x0000000040228c40       0x80 drivers/built-in.o
                0x0000000040228c40                device_free
 .text.device_remove
                0x0000000040228cc0      0x154 drivers/built-in.o
                0x0000000040228cc0                device_remove
 .text.device_chld_remove
                0x0000000040228e14       0x78 drivers/built-in.o
                0x0000000040228e14                device_chld_remove
 .text.simple_bus_post_bind
                0x0000000040228e8c       0x60 drivers/built-in.o
 .text.show_devices
                0x0000000040228eec      0x134 drivers/built-in.o
 .text.dm_dump_all
                0x0000000040229020       0x54 drivers/built-in.o
                0x0000000040229020                dm_dump_all
 .text.dm_dump_uclass
                0x0000000040229074      0x120 drivers/built-in.o
                0x0000000040229074                dm_dump_uclass
 .text.ofnode_read_u32
                0x0000000040229194       0x5c drivers/built-in.o
                0x0000000040229194                ofnode_read_u32
 .text.ofnode_read_u32_default
                0x00000000402291f0       0x20 drivers/built-in.o
                0x00000000402291f0                ofnode_read_u32_default
 .text.ofnode_read_string
                0x0000000040229210       0x5c drivers/built-in.o
                0x0000000040229210                ofnode_read_string
 .text.ofnode_read_u32_array
                0x000000004022926c       0x1c drivers/built-in.o
                0x000000004022926c                ofnode_read_u32_array
 .text.ofnode_first_subnode
                0x0000000040229288       0x24 drivers/built-in.o
                0x0000000040229288                ofnode_first_subnode
 .text.ofnode_next_subnode
                0x00000000402292ac       0x24 drivers/built-in.o
                0x00000000402292ac                ofnode_next_subnode
 .text.ofnode_get_name
                0x00000000402292d0       0x14 drivers/built-in.o
                0x00000000402292d0                ofnode_get_name
 .text.ofnode_stringlist_search
                0x00000000402292e4       0x44 drivers/built-in.o
                0x00000000402292e4                ofnode_stringlist_search
 .text.ofnode_parse_phandle_with_args
                0x0000000040229328       0x6c drivers/built-in.o
                0x0000000040229328                ofnode_parse_phandle_with_args
 .text.ofnode_path
                0x0000000040229394       0x24 drivers/built-in.o
                0x0000000040229394                ofnode_path
 .text.ofnode_get_property
                0x00000000402293b8       0x18 drivers/built-in.o
                0x00000000402293b8                ofnode_get_property
 .text.ofnode_read_bool
                0x00000000402293d0       0x20 drivers/built-in.o
                0x00000000402293d0                ofnode_read_bool
 .text.ofnode_pre_reloc
                0x00000000402293f0       0x7c drivers/built-in.o
                0x00000000402293f0                ofnode_pre_reloc
 .text.pinconfig_post_bind
                0x000000004022946c       0xdc drivers/built-in.o
 .text.pinctrl_post_bind
                0x0000000040229548       0x28 drivers/built-in.o
 .text.pinctrl_select_state
                0x0000000040229570      0x16c drivers/built-in.o
                0x0000000040229570                pinctrl_select_state
 .text.pinctrl_get_pins_count
                0x00000000402296dc       0x1c drivers/built-in.o
                0x00000000402296dc                pinctrl_get_pins_count
 .text.pinctrl_get_pin_name
                0x00000000402296f8       0x50 drivers/built-in.o
                0x00000000402296f8                pinctrl_get_pin_name
 .text.pinctrl_get_pin_muxing
                0x0000000040229748       0x1c drivers/built-in.o
                0x0000000040229748                pinctrl_get_pin_muxing
 .text.imx_pinctrl_set_state
                0x0000000040229764      0x310 drivers/built-in.o
 .text.imx_pinctrl_probe
                0x0000000040229a74      0x130 drivers/built-in.o
                0x0000000040229a74                imx_pinctrl_probe
 .text.imx_pinctrl_remove
                0x0000000040229ba4       0x18 drivers/built-in.o
                0x0000000040229ba4                imx_pinctrl_remove
 .text.imx8mq_pinctrl_probe
                0x0000000040229bbc       0x28 drivers/built-in.o
 .text.get_desc
                0x0000000040229be4       0xd0 drivers/built-in.o
 .text.blk_post_probe
                0x0000000040229cb4       0x1c drivers/built-in.o
 .text.blk_get_if_type_name
                0x0000000040229cd0       0x10 drivers/built-in.o
                0x0000000040229cd0                blk_get_if_type_name
 .text.blk_get_devnum_by_typename
                0x0000000040229ce0       0xf4 drivers/built-in.o
                0x0000000040229ce0                blk_get_devnum_by_typename
 .text.blk_list_part
                0x0000000040229dd4       0x7c drivers/built-in.o
                0x0000000040229dd4                blk_list_part
 .text.blk_print_part_devnum
                0x0000000040229e50       0x48 drivers/built-in.o
                0x0000000040229e50                blk_print_part_devnum
 .text.blk_list_devices
                0x0000000040229e98       0x78 drivers/built-in.o
                0x0000000040229e98                blk_list_devices
 .text.blk_print_device_num
                0x0000000040229f10       0x48 drivers/built-in.o
                0x0000000040229f10                blk_print_device_num
 .text.blk_show_device
                0x0000000040229f58       0x7c drivers/built-in.o
                0x0000000040229f58                blk_show_device
 .text.blk_select_hwpart
                0x0000000040229fd4       0x28 drivers/built-in.o
                0x0000000040229fd4                blk_select_hwpart
 .text.blk_dselect_hwpart
                0x0000000040229ffc        0x8 drivers/built-in.o
                0x0000000040229ffc                blk_dselect_hwpart
 .text.blk_first_device
                0x000000004022a004       0x70 drivers/built-in.o
                0x000000004022a004                blk_first_device
 .text.blk_next_device
                0x000000004022a074       0x64 drivers/built-in.o
                0x000000004022a074                blk_next_device
 .text.blk_find_device
                0x000000004022a0d8       0xa0 drivers/built-in.o
                0x000000004022a0d8                blk_find_device
 .text.blk_get_device
                0x000000004022a178       0x34 drivers/built-in.o
                0x000000004022a178                blk_get_device
 .text.blk_get_devnum_by_type
                0x000000004022a1ac       0x2c drivers/built-in.o
                0x000000004022a1ac                blk_get_devnum_by_type
 .text.blk_select_hwpart_devnum
                0x000000004022a1d8       0x34 drivers/built-in.o
                0x000000004022a1d8                blk_select_hwpart_devnum
 .text.blk_dread
                0x000000004022a20c       0xb8 drivers/built-in.o
                0x000000004022a20c                blk_dread
 .text.blk_read_devnum
                0x000000004022a2c4       0x54 drivers/built-in.o
                0x000000004022a2c4                blk_read_devnum
 .text.blk_dwrite
                0x000000004022a318       0x80 drivers/built-in.o
                0x000000004022a318                blk_dwrite
 .text.blk_write_devnum
                0x000000004022a398       0x54 drivers/built-in.o
                0x000000004022a398                blk_write_devnum
 .text.blk_derase
                0x000000004022a3ec       0x6c drivers/built-in.o
                0x000000004022a3ec                blk_derase
 .text.blk_get_from_parent
                0x000000004022a458       0x5c drivers/built-in.o
                0x000000004022a458                blk_get_from_parent
 .text.blk_find_max_devnum
                0x000000004022a4b4       0x90 drivers/built-in.o
                0x000000004022a4b4                blk_find_max_devnum
 .text.blk_next_free_devnum
                0x000000004022a544       0x2c drivers/built-in.o
                0x000000004022a544                blk_next_free_devnum
 .text.blk_create_device
                0x000000004022a570      0x158 drivers/built-in.o
                0x000000004022a570                blk_create_device
 .text.blk_create_devicef
                0x000000004022a6c8       0xc4 drivers/built-in.o
                0x000000004022a6c8                blk_create_devicef
 .text.blkcache_read
                0x000000004022a78c       0xf0 drivers/built-in.o
                0x000000004022a78c                blkcache_read
 .text.blkcache_fill
                0x000000004022a87c      0x14c drivers/built-in.o
                0x000000004022a87c                blkcache_fill
 .text.blkcache_invalidate
                0x000000004022a9c8       0xa0 drivers/built-in.o
                0x000000004022a9c8                blkcache_invalidate
 .text.blkcache_configure
                0x000000004022aa68       0xa0 drivers/built-in.o
                0x000000004022aa68                blkcache_configure
 .text.blkcache_stats
                0x000000004022ab08       0x34 drivers/built-in.o
                0x000000004022ab08                blkcache_stats
 .text.fastboot_response
                0x000000004022ab3c       0xa0 drivers/built-in.o
                0x000000004022ab3c                fastboot_response
 .text.fastboot_fail
                0x000000004022abdc       0x18 drivers/built-in.o
                0x000000004022abdc                fastboot_fail
 .text.fastboot_okay
                0x000000004022abf4       0x24 drivers/built-in.o
                0x000000004022abf4                fastboot_okay
 .text.fastboot_boot
                0x000000004022ac18       0x94 drivers/built-in.o
                0x000000004022ac18                fastboot_boot
 .text.fastboot_init
                0x000000004022acac       0x58 drivers/built-in.o
                0x000000004022acac                fastboot_init
 .text.mmc_sparse_reserve
                0x000000004022ad04        0x8 drivers/built-in.o
 .text.mmc_sparse_write
                0x000000004022ad0c       0xec drivers/built-in.o
 .text.write_backup_gpt
                0x000000004022adf8       0x9c drivers/built-in.o
                0x000000004022adf8                write_backup_gpt
 .text.process_flash_blkdev
                0x000000004022ae94      0x4d8 drivers/built-in.o
 .text.fastboot_process_erase
                0x000000004022b36c      0x1dc drivers/built-in.o
                0x000000004022b36c                fastboot_process_erase
 .text.fastboot_process_flash
                0x000000004022b548       0x4c drivers/built-in.o
                0x000000004022b548                fastboot_process_flash
 .text.okay     0x000000004022b594        0x8 drivers/built-in.o
 .text.upload   0x000000004022b59c       0xa8 drivers/built-in.o
 .text.download
                0x000000004022b644       0xac drivers/built-in.o
 .text.getvar   0x000000004022b6f0        0x4 drivers/built-in.o
 .text.run_ucmd
                0x000000004022b6f4       0x68 drivers/built-in.o
 .text.flash    0x000000004022b75c       0x50 drivers/built-in.o
 .text.reboot_bootloader
                0x000000004022b7ac        0x8 drivers/built-in.o
 .text.erase    0x000000004022b7b4       0x3c drivers/built-in.o
 .text.run_acmd
                0x000000004022b7f0       0x5c drivers/built-in.o
 .text.fastboot_run_bootmode
                0x000000004022b84c        0xc drivers/built-in.o
                0x000000004022b84c                fastboot_run_bootmode
 .text.fastboot_data_remaining
                0x000000004022b858       0x20 drivers/built-in.o
                0x000000004022b858                fastboot_data_remaining
 .text.fastboot_data_download
                0x000000004022b878       0xb8 drivers/built-in.o
                0x000000004022b878                fastboot_data_download
 .text.fastboot_data_complete
                0x000000004022b930       0x60 drivers/built-in.o
                0x000000004022b930                fastboot_data_complete
 .text.fastboot_acmd_complete
                0x000000004022b990       0x10 drivers/built-in.o
                0x000000004022b990                fastboot_acmd_complete
 .text.fastboot_handle_command
                0x000000004022b9a0       0xd8 drivers/built-in.o
                0x000000004022b9a0                fastboot_handle_command
 .text.get_block_size
                0x000000004022ba78       0x7c drivers/built-in.o
                0x000000004022ba78                get_block_size
 .text.fastboot_none_resp
                0x000000004022baf4        0x8 drivers/built-in.o
                0x000000004022baf4                fastboot_none_resp
 .text.board_fastboot_setup
                0x000000004022bafc      0x468 drivers/built-in.o
                0x000000004022bafc                board_fastboot_setup
 .text.fastboot_setup
                0x000000004022bf64      0x10c drivers/built-in.o
                0x000000004022bf64                fastboot_setup
 .text.strcmp_l1
                0x000000004022c070       0x3c drivers/built-in.o
 .text.get_serial
                0x000000004022c0ac       0x50 drivers/built-in.o
                0x000000004022c0ac                get_serial
 .text.get_single_var
                0x000000004022c0fc      0x4a8 drivers/built-in.o
 .text.fastboot_getvar
                0x000000004022c5a4      0x488 drivers/built-in.o
                0x000000004022c5a4                fastboot_getvar
 .text.bootloader_mmc_offset
                0x000000004022ca2c      0x1b8 drivers/built-in.o
 .text.bootloader_gpt_overlay
                0x000000004022cbe4       0x40 drivers/built-in.o
                0x000000004022cbe4                bootloader_gpt_overlay
 .text.fastboot_flash_add_ptn
                0x000000004022cc24       0x50 drivers/built-in.o
                0x000000004022cc24                fastboot_flash_add_ptn
 .text._fastboot_parts_load_from_ptable
                0x000000004022cc74      0x2e0 drivers/built-in.o
 .text.fastboot_load_partitions
                0x000000004022cf54        0xc drivers/built-in.o
                0x000000004022cf54                fastboot_load_partitions
 .text.fastboot_flash_dump_ptn
                0x000000004022cf60       0x6c drivers/built-in.o
                0x000000004022cf60                fastboot_flash_dump_ptn
 .text.fastboot_flash_find_ptn
                0x000000004022cfcc       0x9c drivers/built-in.o
                0x000000004022cfcc                fastboot_flash_find_ptn
 .text.fastboot_parts_is_raw
                0x000000004022d068       0xa0 drivers/built-in.o
                0x000000004022d068                fastboot_parts_is_raw
 .text.fastboot_parts_get_name
                0x000000004022d108      0x118 drivers/built-in.o
                0x000000004022d108                fastboot_parts_get_name
 .text.fastboot_parts_is_slot
                0x000000004022d220       0x90 drivers/built-in.o
                0x000000004022d220                fastboot_parts_is_slot
 .text.finish_access
                0x000000004022d2b0       0x40 drivers/built-in.o
 .text.wait_busy
                0x000000004022d2f0       0x38 drivers/built-in.o
 .text.prepare_access
                0x000000004022d328       0xd0 drivers/built-in.o
 .text.set_timing
                0x000000004022d3f8       0xa4 drivers/built-in.o
 .text.fuse_read
                0x000000004022d49c       0x80 drivers/built-in.o
                0x000000004022d49c                fuse_read
 .text.fuse_sense
                0x000000004022d51c      0x108 drivers/built-in.o
                0x000000004022d51c                fuse_sense
 .text.fuse_prog
                0x000000004022d624       0xac drivers/built-in.o
                0x000000004022d624                fuse_prog
 .text.fuse_override
                0x000000004022d6d0       0x74 drivers/built-in.o
                0x000000004022d6d0                fuse_override
 .text.mmc_send_ext_csd
                0x000000004022d744       0x40 drivers/built-in.o
 .text.mmc_send_op_cond_iter
                0x000000004022d784       0x74 drivers/built-in.o
 .text.mmc_go_idle
                0x000000004022d7f8       0x50 drivers/built-in.o
 .text.mmc_read_and_compare_ext_csd
                0x000000004022d848       0xb0 drivers/built-in.o
 .text.mmc_set_capacity
                0x000000004022d8f8       0x84 drivers/built-in.o
 .text.mmc_set_signal_voltage
                0x000000004022d97c       0x1c drivers/built-in.o
 .text.mmc_select_mode
                0x000000004022d998       0x58 drivers/built-in.o
 .text.mmc_power_on.isra.2
                0x000000004022d9f0       0x44 drivers/built-in.o
 .text.mmc_power_cycle
                0x000000004022da34       0x58 drivers/built-in.o
 .text.sd_get_capabilities
                0x000000004022da8c      0x220 drivers/built-in.o
 .text.mmc_mode_name
                0x000000004022dcac       0x24 drivers/built-in.o
                0x000000004022dcac                mmc_mode_name
 .text.mmc_send_status
                0x000000004022dcd0       0xe0 drivers/built-in.o
                0x000000004022dcd0                mmc_send_status
 .text.__mmc_switch.isra.4
                0x000000004022ddb0       0x94 drivers/built-in.o
 .text.mmc_startup_v4
                0x000000004022de44      0x2b0 drivers/built-in.o
 .text.mmc_set_blocklen
                0x000000004022e0f4       0x7c drivers/built-in.o
                0x000000004022e0f4                mmc_set_blocklen
 .text.mmc_send_tuning
                0x000000004022e170       0xbc drivers/built-in.o
                0x000000004022e170                mmc_send_tuning
 .text.mmc_bread
                0x000000004022e22c      0x17c drivers/built-in.o
                0x000000004022e22c                mmc_bread
 .text.mmc_switch
                0x000000004022e3a8       0x10 drivers/built-in.o
                0x000000004022e3a8                mmc_switch
 .text.mmc_hwpart_config
                0x000000004022e3b8      0x3d8 drivers/built-in.o
                0x000000004022e3b8                mmc_hwpart_config
 .text.mmc_set_clock
                0x000000004022e790       0x30 drivers/built-in.o
                0x000000004022e790                mmc_set_clock
 .text.mmc_set_card_speed
                0x000000004022e7c0       0xf4 drivers/built-in.o
 .text.mmc_select_mode_and_width
                0x000000004022e8b4      0x3d0 drivers/built-in.o
 .text.mmc_switch_part
                0x000000004022ec84       0xc4 drivers/built-in.o
                0x000000004022ec84                mmc_switch_part
 .text.sd_select_mode_and_width
                0x000000004022ed48      0x3b8 drivers/built-in.o
 .text.mmc_dump_capabilities
                0x000000004022f100        0x4 drivers/built-in.o
                0x000000004022f100                mmc_dump_capabilities
 .text.mmc_get_op_cond
                0x000000004022f104      0x3a0 drivers/built-in.o
                0x000000004022f104                mmc_get_op_cond
 .text.mmc_start_init
                0x000000004022f4a4       0x68 drivers/built-in.o
                0x000000004022f4a4                mmc_start_init
 .text.mmc_init
                0x000000004022f50c      0x564 drivers/built-in.o
                0x000000004022f50c                mmc_init
 .text.mmc_deinit
                0x000000004022fa70       0x2c drivers/built-in.o
                0x000000004022fa70                mmc_deinit
 .text.mmc_set_dsr
                0x000000004022fa9c       0x10 drivers/built-in.o
                0x000000004022fa9c                mmc_set_dsr
 .text.mmc_initialize
                0x000000004022faac       0xd8 drivers/built-in.o
                0x000000004022faac                mmc_initialize
 .text.mmc_blk_remove
                0x000000004022fb84       0x1c drivers/built-in.o
 .text.mmc_blk_probe
                0x000000004022fba0       0x1c drivers/built-in.o
 .text.dm_mmc_set_ios
                0x000000004022fbbc       0x1c drivers/built-in.o
                0x000000004022fbbc                dm_mmc_set_ios
 .text.mmc_set_ios
                0x000000004022fbd8        0x8 drivers/built-in.o
                0x000000004022fbd8                mmc_set_ios
 .text.dm_mmc_send_init_stream
                0x000000004022fbe0       0x18 drivers/built-in.o
                0x000000004022fbe0                dm_mmc_send_init_stream
 .text.mmc_send_init_stream
                0x000000004022fbf8        0x8 drivers/built-in.o
                0x000000004022fbf8                mmc_send_init_stream
 .text.dm_mmc_wait_dat0
                0x000000004022fc00       0x1c drivers/built-in.o
                0x000000004022fc00                dm_mmc_wait_dat0
 .text.mmc_wait_dat0
                0x000000004022fc1c        0x8 drivers/built-in.o
                0x000000004022fc1c                mmc_wait_dat0
 .text.dm_mmc_get_wp
                0x000000004022fc24       0x1c drivers/built-in.o
                0x000000004022fc24                dm_mmc_get_wp
 .text.mmc_getwp
                0x000000004022fc40        0x8 drivers/built-in.o
                0x000000004022fc40                mmc_getwp
 .text.dm_mmc_get_cd
                0x000000004022fc48       0x1c drivers/built-in.o
                0x000000004022fc48                dm_mmc_get_cd
 .text.mmc_getcd
                0x000000004022fc64        0x8 drivers/built-in.o
                0x000000004022fc64                mmc_getcd
 .text.dm_mmc_execute_tuning
                0x000000004022fc6c       0x1c drivers/built-in.o
                0x000000004022fc6c                dm_mmc_execute_tuning
 .text.mmc_execute_tuning
                0x000000004022fc88        0x8 drivers/built-in.o
                0x000000004022fc88                mmc_execute_tuning
 .text.mmc_get_mmc_dev
                0x000000004022fc90       0x28 drivers/built-in.o
                0x000000004022fc90                mmc_get_mmc_dev
 .text.dm_mmc_send_cmd
                0x000000004022fcb8       0x60 drivers/built-in.o
                0x000000004022fcb8                dm_mmc_send_cmd
 .text.mmc_send_cmd
                0x000000004022fd18        0x8 drivers/built-in.o
                0x000000004022fd18                mmc_send_cmd
 .text.mmc_select_hwpart
                0x000000004022fd20       0x78 drivers/built-in.o
 .text.find_mmc_device
                0x000000004022fd98       0x54 drivers/built-in.o
                0x000000004022fd98                find_mmc_device
 .text.get_mmc_num
                0x000000004022fdec       0x20 drivers/built-in.o
                0x000000004022fdec                get_mmc_num
 .text.mmc_get_blk_desc
                0x000000004022fe0c       0x28 drivers/built-in.o
                0x000000004022fe0c                mmc_get_blk_desc
 .text.mmc_do_preinit
                0x000000004022fe34       0x68 drivers/built-in.o
                0x000000004022fe34                mmc_do_preinit
 .text.print_mmc_devices
                0x000000004022fe9c       0xfc drivers/built-in.o
                0x000000004022fe9c                print_mmc_devices
 .text.mmc_bind
                0x000000004022ff98       0xcc drivers/built-in.o
                0x000000004022ff98                mmc_bind
 .text.mmc_berase
                0x0000000040230064      0x1d4 drivers/built-in.o
                0x0000000040230064                mmc_berase
 .text.mmc_bwrite
                0x0000000040230238      0x1a4 drivers/built-in.o
                0x0000000040230238                mmc_bwrite
 .text.mmc_boot_partition_size_change
                0x00000000402303dc       0xc0 drivers/built-in.o
                0x00000000402303dc                mmc_boot_partition_size_change
 .text.mmc_set_boot_bus_width
                0x000000004023049c       0x20 drivers/built-in.o
                0x000000004023049c                mmc_set_boot_bus_width
 .text.mmc_set_part_conf
                0x00000000402304bc       0x4c drivers/built-in.o
                0x00000000402304bc                mmc_set_part_conf
 .text.mmc_set_rst_n_function
                0x0000000040230508       0x10 drivers/built-in.o
                0x0000000040230508                mmc_set_rst_n_function
 .text.fsl_esdhc_get_cd
                0x0000000040230518       0x74 drivers/built-in.o
 .text.fsl_esdhc_bind
                0x000000004023058c       0x2c drivers/built-in.o
 .text.fsl_esdhc_set_ios
                0x00000000402305b8      0x434 drivers/built-in.o
 .text.fsl_esdhc_execute_tuning
                0x00000000402309ec      0x1b4 drivers/built-in.o
 .text.check_and_invalidate_dcache_range.isra.5
                0x0000000040230ba0       0x50 drivers/built-in.o
 .text.fsl_esdhc_send_cmd
                0x0000000040230bf0      0x434 drivers/built-in.o
 .text.fsl_esdhc_probe
                0x0000000040231024      0x4cc drivers/built-in.o
 .text.thermal_get_temp
                0x00000000402314f0       0x1c drivers/built-in.o
                0x00000000402314f0                thermal_get_temp
 .text.nxp_tmu_ofdata_to_platdata
                0x000000004023150c      0x1c4 drivers/built-in.o
 .text.nxp_tmu_bind
                0x00000000402316d0       0xe0 drivers/built-in.o
 .text.nxp_tmu_get_temp
                0x00000000402317b0       0xdc drivers/built-in.o
                0x00000000402317b0                nxp_tmu_get_temp
 .text.nxp_tmu_probe
                0x000000004023188c      0x248 drivers/built-in.o
 .text.gpio_post_bind
                0x0000000040231ad4        0x8 drivers/gpio/built-in.o
 .text.get_function
                0x0000000040231adc       0xb4 drivers/gpio/built-in.o
 .text.gpio_to_device
                0x0000000040231b90       0x90 drivers/gpio/built-in.o
 .text.check_reserved
                0x0000000040231c20       0x78 drivers/gpio/built-in.o
 .text.gpio_renumber
                0x0000000040231c98       0x90 drivers/gpio/built-in.o
 .text.gpio_pre_remove
                0x0000000040231d28       0x5c drivers/gpio/built-in.o
 .text.gpio_post_probe
                0x0000000040231d84       0x48 drivers/gpio/built-in.o
 .text.dm_gpio_lookup_name
                0x0000000040231dcc      0x110 drivers/gpio/built-in.o
                0x0000000040231dcc                dm_gpio_lookup_name
 .text.gpio_lookup_name
                0x0000000040231edc       0x7c drivers/gpio/built-in.o
                0x0000000040231edc                gpio_lookup_name
 .text.gpio_xlate_offs_flags
                0x0000000040231f58       0x40 drivers/gpio/built-in.o
                0x0000000040231f58                gpio_xlate_offs_flags
 .text.dm_gpio_request
                0x0000000040231f98       0xb8 drivers/gpio/built-in.o
                0x0000000040231f98                dm_gpio_request
 .text.dm_gpio_requestf
                0x0000000040232050       0x78 drivers/gpio/built-in.o
 .text.gpio_request
                0x00000000402320c8       0x34 drivers/gpio/built-in.o
                0x00000000402320c8                gpio_request
 .text._dm_gpio_free
                0x00000000402320fc       0x84 drivers/gpio/built-in.o
                0x00000000402320fc                _dm_gpio_free
 .text.gpio_free
                0x0000000040232180       0x28 drivers/gpio/built-in.o
                0x0000000040232180                gpio_free
 .text.gpio_direction_input
                0x00000000402321a8       0x48 drivers/gpio/built-in.o
                0x00000000402321a8                gpio_direction_input
 .text.gpio_direction_output
                0x00000000402321f0       0x58 drivers/gpio/built-in.o
                0x00000000402321f0                gpio_direction_output
 .text.dm_gpio_get_value
                0x0000000040232248       0x54 drivers/gpio/built-in.o
                0x0000000040232248                dm_gpio_get_value
 .text.dm_gpio_set_value
                0x000000004023229c       0x6c drivers/gpio/built-in.o
                0x000000004023229c                dm_gpio_set_value
 .text.dm_gpio_set_dir_flags
                0x0000000040232308       0xa8 drivers/gpio/built-in.o
                0x0000000040232308                dm_gpio_set_dir_flags
 .text.gpio_request_tail
                0x00000000402323b0       0xfc drivers/gpio/built-in.o
 .text.gpio_get_value
                0x00000000402324ac       0x24 drivers/gpio/built-in.o
                0x00000000402324ac                gpio_get_value
 .text.gpio_get_bank_info
                0x00000000402324d0       0x2c drivers/gpio/built-in.o
                0x00000000402324d0                gpio_get_bank_info
 .text.gpio_get_function
                0x00000000402324fc        0xc drivers/gpio/built-in.o
                0x00000000402324fc                gpio_get_function
 .text.gpio_get_raw_function
                0x0000000040232508        0xc drivers/gpio/built-in.o
                0x0000000040232508                gpio_get_raw_function
 .text.gpio_get_status
                0x0000000040232514      0x130 drivers/gpio/built-in.o
                0x0000000040232514                gpio_get_status
 .text.gpio_request_by_name_nodev
                0x0000000040232644       0x78 drivers/gpio/built-in.o
                0x0000000040232644                gpio_request_by_name_nodev
 .text.gpio_request_by_name
                0x00000000402326bc       0x7c drivers/gpio/built-in.o
                0x00000000402326bc                gpio_request_by_name
 .text.dm_gpio_free
                0x0000000040232738       0x10 drivers/gpio/built-in.o
                0x0000000040232738                dm_gpio_free
 .text.gpio_free_list
                0x0000000040232748       0x5c drivers/gpio/built-in.o
                0x0000000040232748                gpio_free_list
 .text.gpio_free_list_nodev
                0x00000000402327a4       0x10 drivers/gpio/built-in.o
                0x00000000402327a4                gpio_free_list_nodev
 .text.gpio_request_list_by_name_nodev
                0x00000000402327b4       0xcc drivers/gpio/built-in.o
                0x00000000402327b4                gpio_request_list_by_name_nodev
 .text.gpio_request_list_by_name
                0x0000000040232880        0x8 drivers/gpio/built-in.o
                0x0000000040232880                gpio_request_list_by_name
 .text.mxc_gpio_get_function
                0x0000000040232888       0x3c drivers/gpio/built-in.o
 .text.mxc_gpio_get_value
                0x00000000402328c4       0x34 drivers/gpio/built-in.o
 .text.mxc_gpio_direction_input
                0x00000000402328f8       0x44 drivers/gpio/built-in.o
 .text.mxc_gpio_probe
                0x000000004023293c       0x88 drivers/gpio/built-in.o
 .text.mxc_gpio_bind
                0x00000000402329c4       0x74 drivers/gpio/built-in.o
 .text.mxc_gpio_direction_output
                0x0000000040232a38       0x6c drivers/gpio/built-in.o
 .text.mxc_gpio_set_value
                0x0000000040232aa4       0x54 drivers/gpio/built-in.o
 .text.i2c_setup_offset
                0x0000000040232af8       0x54 drivers/i2c/built-in.o
 .text.i2c_probe_chip
                0x0000000040232b4c       0x80 drivers/i2c/built-in.o
 .text.i2c_uclass_init
                0x0000000040232bcc       0x40 drivers/i2c/built-in.o
                0x0000000040232bcc                i2c_uclass_init
 .text.i2c_post_bind
                0x0000000040232c0c       0x34 drivers/i2c/built-in.o
 .text.dm_i2c_read
                0x0000000040232c40      0x178 drivers/i2c/built-in.o
                0x0000000040232c40                dm_i2c_read
 .text.dm_i2c_write
                0x0000000040232db8      0x1f0 drivers/i2c/built-in.o
                0x0000000040232db8                dm_i2c_write
 .text.i2c_get_chip
                0x0000000040232fa8      0x100 drivers/i2c/built-in.o
                0x0000000040232fa8                i2c_get_chip
 .text.dm_i2c_probe
                0x00000000402330a8       0x58 drivers/i2c/built-in.o
                0x00000000402330a8                dm_i2c_probe
 .text.dm_i2c_set_bus_speed
                0x0000000040233100       0x5c drivers/i2c/built-in.o
                0x0000000040233100                dm_i2c_set_bus_speed
 .text.i2c_post_probe
                0x000000004023315c       0x48 drivers/i2c/built-in.o
 .text.dm_i2c_get_bus_speed
                0x00000000402331a4       0x44 drivers/i2c/built-in.o
                0x00000000402331a4                dm_i2c_get_bus_speed
 .text.i2c_set_chip_flags
                0x00000000402331e8       0x60 drivers/i2c/built-in.o
                0x00000000402331e8                i2c_set_chip_flags
 .text.i2c_get_chip_flags
                0x0000000040233248       0x2c drivers/i2c/built-in.o
                0x0000000040233248                i2c_get_chip_flags
 .text.i2c_set_chip_offset_len
                0x0000000040233274       0x38 drivers/i2c/built-in.o
                0x0000000040233274                i2c_set_chip_offset_len
 .text.i2c_get_chip_offset_len
                0x00000000402332ac       0x18 drivers/i2c/built-in.o
                0x00000000402332ac                i2c_get_chip_offset_len
 .text.i2c_deblock
                0x00000000402332c4      0x188 drivers/i2c/built-in.o
                0x00000000402332c4                i2c_deblock
 .text.i2c_chip_ofdata_to_platdata
                0x000000004023344c       0x64 drivers/i2c/built-in.o
                0x000000004023344c                i2c_chip_ofdata_to_platdata
 .text.i2c_child_post_bind
                0x00000000402334b0       0x44 drivers/i2c/built-in.o
 .text.wait_for_sr_state
                0x00000000402334f4      0x134 drivers/i2c/built-in.o
 .text.tx_byte  0x0000000040233628       0x64 drivers/i2c/built-in.o
 .text.mxc_i2c_probe
                0x000000004023368c      0x10c drivers/i2c/built-in.o
 .text.i2c_imx_stop
                0x0000000040233798       0x6c drivers/i2c/built-in.o
 .text.mxc_i2c_set_bus_speed
                0x0000000040233804       0xe8 drivers/i2c/built-in.o
 .text.__i2c_force_reset_slave
                0x00000000402338ec        0x4 drivers/i2c/built-in.o
                0x00000000402338ec                __i2c_force_reset_slave
                0x00000000402338ec                i2c_force_reset_slave
 .text.i2c_idle_bus
                0x00000000402338f0      0x164 drivers/i2c/built-in.o
                0x00000000402338f0                i2c_idle_bus
 .text.i2c_init_transfer.constprop.4
                0x0000000040233a54      0x208 drivers/i2c/built-in.o
 .text.mxc_i2c_xfer
                0x0000000040233c5c      0x260 drivers/i2c/built-in.o
 .text.mxc_i2c_probe_chip
                0x0000000040233ebc       0x3c drivers/i2c/built-in.o
 .text.mtd_arg_off
                0x0000000040233ef8       0x7c drivers/mtd/built-in.o
                0x0000000040233ef8                mtd_arg_off
 .text.mtd_arg_off_size
                0x0000000040233f74      0x114 drivers/mtd/built-in.o
                0x0000000040233f74                mtd_arg_off_size
 .text.spi_flash_post_bind
                0x0000000040234088        0x8 drivers/mtd/spi/built-in.o
 .text.spi_flash_read_dm
                0x0000000040234090       0x10 drivers/mtd/spi/built-in.o
                0x0000000040234090                spi_flash_read_dm
 .text.spi_flash_write_dm
                0x00000000402340a0       0x10 drivers/mtd/spi/built-in.o
                0x00000000402340a0                spi_flash_write_dm
 .text.spi_flash_erase_dm
                0x00000000402340b0       0x10 drivers/mtd/spi/built-in.o
                0x00000000402340b0                spi_flash_erase_dm
 .text.spi_flash_probe_bus_cs
                0x00000000402340c0       0x98 drivers/mtd/spi/built-in.o
                0x00000000402340c0                spi_flash_probe_bus_cs
 .text.spi_flash_std_remove
                0x0000000040234158        0x8 drivers/mtd/spi/built-in.o
 .text.spi_flash_std_write
                0x0000000040234160       0x48 drivers/mtd/spi/built-in.o
 .text.spi_flash_std_read
                0x00000000402341a8       0x48 drivers/mtd/spi/built-in.o
 .text.spi_flash_std_get_sw_write_prot
                0x00000000402341f0       0x14 drivers/mtd/spi/built-in.o
 .text.spi_flash_std_erase
                0x0000000040234204       0x88 drivers/mtd/spi/built-in.o
 .text.spi_flash_std_probe
                0x000000004023428c       0x84 drivers/mtd/spi/built-in.o
 .text.read_sr  0x0000000040234310       0x2c drivers/mtd/spi/built-in.o
 .text.read_cr  0x000000004023433c       0x2c drivers/mtd/spi/built-in.o
 .text.write_enable
                0x0000000040234368       0x14 drivers/mtd/spi/built-in.o
 .text.write_disable
                0x000000004023437c       0x14 drivers/mtd/spi/built-in.o
 .text.clean_bar
                0x0000000040234390       0x54 drivers/mtd/spi/built-in.o
 .text.write_bar
                0x00000000402343e4       0x60 drivers/mtd/spi/built-in.o
 .text.stm_get_locked_range
                0x0000000040234444       0x50 drivers/mtd/spi/built-in.o
 .text.spi_nor_read
                0x0000000040234494       0xbc drivers/mtd/spi/built-in.o
 .text.spi_nor_write_data
                0x0000000040234550       0xf8 drivers/mtd/spi/built-in.o
 .text.spi_nor_read_data
                0x0000000040234648       0xdc drivers/mtd/spi/built-in.o
 .text.spi_nor_wait_till_ready_with_timeout.constprop.10
                0x0000000040234724       0xf8 drivers/mtd/spi/built-in.o
 .text.spi_nor_read_reg
                0x000000004023481c       0x64 drivers/mtd/spi/built-in.o
 .text.spi_nor_write_reg
                0x0000000040234880       0x68 drivers/mtd/spi/built-in.o
 .text.spi_nor_erase
                0x00000000402348e8      0x100 drivers/mtd/spi/built-in.o
 .text.spi_nor_write
                0x00000000402349e8      0x14c drivers/mtd/spi/built-in.o
 .text.spansion_read_cr_quad_enable
                0x0000000040234b34       0x90 drivers/mtd/spi/built-in.o
 .text.stm_is_locked
                0x0000000040234bc4       0x78 drivers/mtd/spi/built-in.o
 .text.write_sr_and_check.constprop.9
                0x0000000040234c3c       0x70 drivers/mtd/spi/built-in.o
 .text.stm_is_locked_sr
                0x0000000040234cac       0x5c drivers/mtd/spi/built-in.o
 .text.stm_lock
                0x0000000040234d08      0x210 drivers/mtd/spi/built-in.o
 .text.stm_is_unlocked_sr
                0x0000000040234f18       0x5c drivers/mtd/spi/built-in.o
 .text.stm_unlock
                0x0000000040234f74      0x21c drivers/mtd/spi/built-in.o
 .text.spi_nor_scan
                0x0000000040235190      0x7d8 drivers/mtd/spi/built-in.o
                0x0000000040235190                spi_nor_scan
 .text.spi_flash_cmd_get_sw_write_prot
                0x0000000040235968       0x24 drivers/mtd/spi/built-in.o
                0x0000000040235968                spi_flash_cmd_get_sw_write_prot
 .text.fec_reg_setup
                0x000000004023598c       0x68 drivers/net/built-in.o
 .text.fecmxc_free_pkt
                0x00000000402359f4       0x28 drivers/net/built-in.o
 .text.fec_free_descs
                0x0000000040235a1c       0x48 drivers/net/built-in.o
 .text.fec_phy_write
                0x0000000040235a64       0x8c drivers/net/built-in.o
 .text.fec_phy_read
                0x0000000040235af0       0x98 drivers/net/built-in.o
 .text.fecmxc_set_hwaddr
                0x0000000040235b88       0xb0 drivers/net/built-in.o
 .text.fecmxc_read_rom_hwaddr
                0x0000000040235c38       0x80 drivers/net/built-in.o
 .text.fecmxc_halt
                0x0000000040235cb8       0x88 drivers/net/built-in.o
 .text.fecmxc_ofdata_to_platdata
                0x0000000040235d40      0x128 drivers/net/built-in.o
 .text.fecmxc_remove
                0x0000000040235e68       0x54 drivers/net/built-in.o
 .text.fecmxc_send
                0x0000000040235ebc      0x168 drivers/net/built-in.o
 .text.fec_mii_setspeed.isra.5
                0x0000000040236024       0x7c drivers/net/built-in.o
 .text.fecmxc_init
                0x00000000402360a0      0x354 drivers/net/built-in.o
 .text.fecmxc_recv
                0x00000000402363f4      0x24c drivers/net/built-in.o
 .text.fec_get_miibus
                0x0000000040236640       0xb8 drivers/net/built-in.o
                0x0000000040236640                fec_get_miibus
 .text.fecmxc_probe
                0x00000000402366f8      0x32c drivers/net/built-in.o
 .text.genphy_shutdown
                0x0000000040236a24        0x8 drivers/net/phy/built-in.o
                0x0000000040236a24                genphy_shutdown
 .text.genphy_restart_aneg
                0x0000000040236a2c       0x64 drivers/net/phy/built-in.o
                0x0000000040236a2c                genphy_restart_aneg
 .text.genphy_config_aneg
                0x0000000040236a90      0x1ec drivers/net/phy/built-in.o
                0x0000000040236a90                genphy_config_aneg
 .text.genphy_config
                0x0000000040236c7c       0xcc drivers/net/phy/built-in.o
                0x0000000040236c7c                genphy_config
 .text.genphy_update_link
                0x0000000040236d48      0x160 drivers/net/phy/built-in.o
                0x0000000040236d48                genphy_update_link
 .text.genphy_parse_link
                0x0000000040236ea8      0x1ac drivers/net/phy/built-in.o
                0x0000000040236ea8                genphy_parse_link
 .text.genphy_startup
                0x0000000040237054       0x34 drivers/net/phy/built-in.o
                0x0000000040237054                genphy_startup
 .text.phy_init
                0x0000000040237088       0x18 drivers/net/phy/built-in.o
                0x0000000040237088                phy_init
 .text.phy_register
                0x00000000402370a0       0x24 drivers/net/phy/built-in.o
                0x00000000402370a0                phy_register
 .text.get_phy_id
                0x00000000402370c4       0x80 drivers/net/phy/built-in.o
                0x00000000402370c4                get_phy_id
 .text.get_phy_device_by_mask
                0x0000000040237144      0x2e4 drivers/net/phy/built-in.o
 .text.phy_reset
                0x0000000040237428       0xc8 drivers/net/phy/built-in.o
                0x0000000040237428                phy_reset
 .text.phy_find_by_mask
                0x00000000402374f0       0x4c drivers/net/phy/built-in.o
                0x00000000402374f0                phy_find_by_mask
 .text.phy_connect_dev
                0x000000004023753c       0x58 drivers/net/phy/built-in.o
                0x000000004023753c                phy_connect_dev
 .text.phy_connect
                0x0000000040237594       0x70 drivers/net/phy/built-in.o
                0x0000000040237594                phy_connect
 .text.phy_startup
                0x0000000040237604       0x18 drivers/net/phy/built-in.o
                0x0000000040237604                phy_startup
 .text.phy_config
                0x000000004023761c        0x4 drivers/net/phy/built-in.o
                0x000000004023761c                phy_config
 .text.phy_get_interface_by_name
                0x0000000040237620       0x58 drivers/net/phy/built-in.o
                0x0000000040237620                phy_get_interface_by_name
 .text.ar8021_config
                0x0000000040237678       0x80 drivers/net/phy/built-in.o
 .text.ar8035_config
                0x00000000402376f8      0x1ac drivers/net/phy/built-in.o
 .text.ar8031_config
                0x00000000402378a4       0xcc drivers/net/phy/built-in.o
 .text.phy_atheros_init
                0x0000000040237970       0x38 drivers/net/phy/built-in.o
                0x0000000040237970                phy_atheros_init
 .text.pmic_pre_probe
                0x00000000402379a8       0x20 drivers/power/pmic/built-in.o
 .text.regulator_pre_probe
                0x00000000402379c8      0x12c drivers/power/regulator/built-in.o
 .text.regulator_post_bind
                0x0000000040237af4       0xcc drivers/power/regulator/built-in.o
 .text.regulator_mode
                0x0000000040237bc0       0x3c drivers/power/regulator/built-in.o
                0x0000000040237bc0                regulator_mode
 .text.regulator_get_value
                0x0000000040237bfc       0x40 drivers/power/regulator/built-in.o
                0x0000000040237bfc                regulator_get_value
 .text.regulator_set_value_force
                0x0000000040237c3c       0x48 drivers/power/regulator/built-in.o
                0x0000000040237c3c                regulator_set_value_force
 .text.regulator_get_current
                0x0000000040237c84       0x40 drivers/power/regulator/built-in.o
                0x0000000040237c84                regulator_get_current
 .text.regulator_set_current
                0x0000000040237cc4       0x90 drivers/power/regulator/built-in.o
                0x0000000040237cc4                regulator_set_current
 .text.regulator_get_enable
                0x0000000040237d54       0x40 drivers/power/regulator/built-in.o
                0x0000000040237d54                regulator_get_enable
 .text.regulator_set_value
                0x0000000040237d94      0x104 drivers/power/regulator/built-in.o
                0x0000000040237d94                regulator_set_value
 .text.regulator_set_enable
                0x0000000040237e98       0xe0 drivers/power/regulator/built-in.o
                0x0000000040237e98                regulator_set_enable
 .text.regulator_get_mode
                0x0000000040237f78       0x40 drivers/power/regulator/built-in.o
                0x0000000040237f78                regulator_get_mode
 .text.regulator_set_mode
                0x0000000040237fb8       0x48 drivers/power/regulator/built-in.o
                0x0000000040237fb8                regulator_set_mode
 .text.regulator_get_by_platname
                0x0000000040238000       0x7c drivers/power/regulator/built-in.o
                0x0000000040238000                regulator_get_by_platname
 .text.device_get_supply_regulator
                0x000000004023807c       0x14 drivers/power/regulator/built-in.o
                0x000000004023807c                device_get_supply_regulator
 .text.fixed_regulator_set_enable
                0x0000000040238090       0x94 drivers/power/regulator/built-in.o
 .text.fixed_regulator_get_enable
                0x0000000040238124       0x28 drivers/power/regulator/built-in.o
 .text.fixed_regulator_get_current
                0x000000004023814c       0x38 drivers/power/regulator/built-in.o
 .text.fixed_regulator_get_value
                0x0000000040238184       0x38 drivers/power/regulator/built-in.o
 .text.fixed_regulator_ofdata_to_platdata
                0x00000000402381bc       0xb8 drivers/power/regulator/built-in.o
 .text.gpio_regulator_set_value
                0x0000000040238274       0x98 drivers/power/regulator/built-in.o
 .text.gpio_regulator_get_value
                0x000000004023830c       0x70 drivers/power/regulator/built-in.o
 .text.gpio_regulator_ofdata_to_platdata
                0x000000004023837c       0xcc drivers/power/regulator/built-in.o
 .text.serial_stub_start
                0x0000000040238448        0xc drivers/serial/built-in.o
 .text.serial_stub_stop
                0x0000000040238454        0xc drivers/serial/built-in.o
 .text.serial_stub_putc
                0x0000000040238460       0x10 drivers/serial/built-in.o
 .text.serial_stub_puts
                0x0000000040238470       0x10 drivers/serial/built-in.o
 .text.serial_stub_getc
                0x0000000040238480        0xc drivers/serial/built-in.o
 .text.serial_stub_tstc
                0x000000004023848c        0xc drivers/serial/built-in.o
 .text.get_current
                0x0000000040238498       0x3c drivers/serial/built-in.o
 .text.serial_null
                0x00000000402384d4        0x4 drivers/serial/built-in.o
                0x00000000402384d4                ns16550_serial_initialize
                0x00000000402384d4                sh_serial_initialize
                0x00000000402384d4                mcf_serial_initialize
                0x00000000402384d4                mpc85xx_serial_initialize
                0x00000000402384d4                pxa_serial_initialize
                0x00000000402384d4                atmel_serial_initialize
                0x00000000402384d4                pl01x_serial_initialize
 .text.serial_register
                0x00000000402384d8       0x14 drivers/serial/built-in.o
                0x00000000402384d8                serial_register
 .text.serial_stdio_init
                0x00000000402384ec       0xb0 drivers/serial/built-in.o
                0x00000000402384ec                serial_stdio_init
 .text.serial_assign
                0x000000004023859c       0x50 drivers/serial/built-in.o
                0x000000004023859c                serial_assign
 .text.serial_initialize
                0x00000000402385ec       0x34 drivers/serial/built-in.o
                0x00000000402385ec                serial_initialize
 .text.serial_init
                0x0000000040238620       0x24 drivers/serial/built-in.o
                0x0000000040238620                serial_init
 .text.serial_setbrg
                0x0000000040238644       0x18 drivers/serial/built-in.o
                0x0000000040238644                serial_setbrg
 .text.on_baudrate
                0x000000004023865c      0x110 drivers/serial/built-in.o
 .text.serial_getc
                0x000000004023876c       0x18 drivers/serial/built-in.o
                0x000000004023876c                serial_getc
 .text.serial_tstc
                0x0000000040238784       0x18 drivers/serial/built-in.o
                0x0000000040238784                serial_tstc
 .text.serial_putc
                0x000000004023879c       0x28 drivers/serial/built-in.o
                0x000000004023879c                serial_putc
 .text.serial_puts
                0x00000000402387c4       0x28 drivers/serial/built-in.o
                0x00000000402387c4                serial_puts
 .text.default_serial_puts
                0x00000000402387ec       0x3c drivers/serial/built-in.o
                0x00000000402387ec                default_serial_puts
 .text.mxc_serial_getc
                0x0000000040238828       0x28 drivers/serial/built-in.o
 .text.mxc_serial_putc
                0x0000000040238850       0x50 drivers/serial/built-in.o
 .text.mxc_serial_tstc
                0x00000000402388a0       0x64 drivers/serial/built-in.o
 .text.mxc_serial_setbrg
                0x0000000040238904       0x78 drivers/serial/built-in.o
 .text.mxc_serial_init
                0x000000004023897c       0x74 drivers/serial/built-in.o
 .text.mxc_serial_initialize
                0x00000000402389f0        0xc drivers/serial/built-in.o
                0x00000000402389f0                mxc_serial_initialize
 .text.default_serial_console
                0x00000000402389fc        0xc drivers/serial/built-in.o
                0x00000000402389fc                default_serial_console
 .text.spi_set_speed_mode
                0x0000000040238a08       0x94 drivers/spi/built-in.o
 .text.spi_child_pre_probe
                0x0000000040238a9c       0x4c drivers/spi/built-in.o
 .text.spi_post_probe
                0x0000000040238ae8       0x40 drivers/spi/built-in.o
 .text.dm_spi_claim_bus
                0x0000000040238b28       0xc4 drivers/spi/built-in.o
                0x0000000040238b28                dm_spi_claim_bus
 .text.dm_spi_release_bus
                0x0000000040238bec       0x1c drivers/spi/built-in.o
                0x0000000040238bec                dm_spi_release_bus
 .text.dm_spi_xfer
                0x0000000040238c08       0x30 drivers/spi/built-in.o
                0x0000000040238c08                dm_spi_xfer
 .text.spi_claim_bus
                0x0000000040238c38        0x8 drivers/spi/built-in.o
                0x0000000040238c38                spi_claim_bus
 .text.spi_release_bus
                0x0000000040238c40        0x8 drivers/spi/built-in.o
                0x0000000040238c40                spi_release_bus
 .text.spi_xfer
                0x0000000040238c48        0x8 drivers/spi/built-in.o
                0x0000000040238c48                spi_xfer
 .text.spi_find_chip_select
                0x0000000040238c50       0x60 drivers/spi/built-in.o
                0x0000000040238c50                spi_find_chip_select
 .text.spi_find_bus_and_cs
                0x0000000040238cb0       0x68 drivers/spi/built-in.o
                0x0000000040238cb0                spi_find_bus_and_cs
 .text.spi_get_bus_and_cs
                0x0000000040238d18      0x1ac drivers/spi/built-in.o
                0x0000000040238d18                spi_get_bus_and_cs
 .text.spi_slave_ofdata_to_platdata
                0x0000000040238ec4      0x190 drivers/spi/built-in.o
                0x0000000040238ec4                spi_slave_ofdata_to_platdata
 .text.spi_child_post_bind
                0x0000000040239054       0x44 drivers/spi/built-in.o
 .text.spi_check_buswidth_req.isra.0
                0x0000000040239098       0x58 drivers/spi/built-in.o
 .text.spi_mem_default_supports_op
                0x00000000402390f0       0x9c drivers/spi/built-in.o
                0x00000000402390f0                spi_mem_default_supports_op
 .text.spi_mem_supports_op
                0x000000004023918c       0x38 drivers/spi/built-in.o
                0x000000004023918c                spi_mem_supports_op
 .text.spi_mem_exec_op
                0x00000000402391c4      0x1c4 drivers/spi/built-in.o
                0x00000000402391c4                spi_mem_exec_op
 .text.spi_mem_adjust_op_size
                0x0000000040239388       0xa0 drivers/spi/built-in.o
                0x0000000040239388                spi_mem_adjust_op_size
 .text.fsl_qspi_set_speed
                0x0000000040239428        0x8 drivers/spi/built-in.o
 .text.fsl_qspi_child_pre_probe
                0x0000000040239430       0x40 drivers/spi/built-in.o
 .text.fsl_qspi_ofdata_to_platdata
                0x0000000040239470      0x150 drivers/spi/built-in.o
 .text.qspi_read32
                0x00000000402395c0       0x14 drivers/spi/built-in.o
 .text.qspi_write32
                0x00000000402395d4       0x14 drivers/spi/built-in.o
 .text.fsl_qspi_set_mode
                0x00000000402395e8        0x8 drivers/spi/built-in.o
 .text.qspi_op_read
                0x00000000402395f0      0x1a8 drivers/spi/built-in.o
 .text.qspi_xfer
                0x0000000040239798      0x80c drivers/spi/built-in.o
                0x0000000040239798                qspi_xfer
 .text.fsl_qspi_xfer
                0x0000000040239fa4       0x48 drivers/spi/built-in.o
 .text.qspi_module_disable
                0x0000000040239fec       0x3c drivers/spi/built-in.o
                0x0000000040239fec                qspi_module_disable
 .text.fsl_qspi_release_bus
                0x000000004023a028       0x24 drivers/spi/built-in.o
 .text.fsl_qspi_claim_bus
                0x000000004023a04c       0xa0 drivers/spi/built-in.o
 .text.qspi_cfg_smpr
                0x000000004023a0ec       0x3c drivers/spi/built-in.o
                0x000000004023a0ec                qspi_cfg_smpr
 .text.fsl_qspi_probe
                0x000000004023a128      0x54c drivers/spi/built-in.o
 .text.usb_get_dr_mode
                0x000000004023a674       0x8c drivers/usb/common/built-in.o
                0x000000004023a674                usb_get_dr_mode
 .text.dwc3_event_buffers_cleanup
                0x000000004023a700       0x70 drivers/usb/dwc3/built-in.o
 .text.dwc3_free_event_buffers
                0x000000004023a770       0x48 drivers/usb/dwc3/built-in.o
 .text.dwc3_free_scratch_buffers
                0x000000004023a7b8       0x1c drivers/usb/dwc3/built-in.o
 .text.dwc3_set_suspend_clk
                0x000000004023a7d4       0x28 drivers/usb/dwc3/built-in.o
                0x000000004023a7d4                dwc3_set_suspend_clk
 .text.dwc3_uboot_init
                0x000000004023a7fc      0x800 drivers/usb/dwc3/built-in.o
                0x000000004023a7fc                dwc3_uboot_init
 .text.dwc3_uboot_exit
                0x000000004023affc       0xa8 drivers/usb/dwc3/built-in.o
                0x000000004023affc                dwc3_uboot_exit
 .text.dwc3_uboot_handle_interrupt
                0x000000004023b0a4       0x40 drivers/usb/dwc3/built-in.o
                0x000000004023b0a4                dwc3_uboot_handle_interrupt
 .text.dwc3_gadget_ep0_enable
                0x000000004023b0e4        0x8 drivers/usb/dwc3/built-in.o
 .text.dwc3_gadget_ep0_disable
                0x000000004023b0ec        0x8 drivers/usb/dwc3/built-in.o
 .text.dwc3_gadget_get_frame
                0x000000004023b0f4       0x14 drivers/usb/dwc3/built-in.o
 .text.dwc3_gadget_set_selfpowered
                0x000000004023b108       0x1c drivers/usb/dwc3/built-in.o
 .text.dwc3_suspend_gadget
                0x000000004023b124       0x1c drivers/usb/dwc3/built-in.o
 .text.dwc3_gadget_ep_alloc_request
                0x000000004023b140       0x38 drivers/usb/dwc3/built-in.o
 .text.dwc3_gadget_init_hw_endpoints
                0x000000004023b178      0x1ac drivers/usb/dwc3/built-in.o
 .text.dwc3_gadget_ep_free_request
                0x000000004023b324        0x8 drivers/usb/dwc3/built-in.o
 .text.dwc3_gadget_free_endpoints
                0x000000004023b32c       0x68 drivers/usb/dwc3/built-in.o
 .text.dwc3_gadget_disconnect_interrupt
                0x000000004023b394       0x80 drivers/usb/dwc3/built-in.o
 .text.dwc3_gadget_pullup
                0x000000004023b414      0x110 drivers/usb/dwc3/built-in.o
 .text.dwc3_prepare_trbs
                0x000000004023b524      0x2f8 drivers/usb/dwc3/built-in.o
 .text.dwc3_gadget_set_test_mode
                0x000000004023b81c       0x3c drivers/usb/dwc3/built-in.o
                0x000000004023b81c                dwc3_gadget_set_test_mode
 .text.dwc3_gadget_set_link_state
                0x000000004023b858       0xdc drivers/usb/dwc3/built-in.o
                0x000000004023b858                dwc3_gadget_set_link_state
 .text.dwc3_gadget_wakeup
                0x000000004023b934       0xe8 drivers/usb/dwc3/built-in.o
 .text.dwc3_gadget_resize_tx_fifos
                0x000000004023ba1c       0xac drivers/usb/dwc3/built-in.o
                0x000000004023ba1c                dwc3_gadget_resize_tx_fifos
 .text.dwc3_gadget_giveback
                0x000000004023bac8       0xec drivers/usb/dwc3/built-in.o
                0x000000004023bac8                dwc3_gadget_giveback
 .text.dwc3_send_gadget_generic_command
                0x000000004023bbb4       0x6c drivers/usb/dwc3/built-in.o
                0x000000004023bbb4                dwc3_send_gadget_generic_command
 .text.dwc3_send_gadget_ep_cmd
                0x000000004023bc20       0xac drivers/usb/dwc3/built-in.o
                0x000000004023bc20                dwc3_send_gadget_ep_cmd
 .text.__dwc3_gadget_kick_transfer
                0x000000004023bccc      0x180 drivers/usb/dwc3/built-in.o
 .text.dwc3_stop_active_transfer.constprop.17
                0x000000004023be4c       0xac drivers/usb/dwc3/built-in.o
 .text.dwc3_gadget_ep_queue
                0x000000004023bef8      0x1b8 drivers/usb/dwc3/built-in.o
 .text.dwc3_endpoint_transfer_complete
                0x000000004023c0b0      0x238 drivers/usb/dwc3/built-in.o
 .text.dwc3_gadget_ep_dequeue
                0x000000004023c2e8       0xc4 drivers/usb/dwc3/built-in.o
 .text.dwc3_remove_requests
                0x000000004023c3ac       0x78 drivers/usb/dwc3/built-in.o
 .text.dwc3_gadget_reset_interrupt
                0x000000004023c424      0x164 drivers/usb/dwc3/built-in.o
 .text.__dwc3_gadget_ep_enable.constprop.18
                0x000000004023c588      0x308 drivers/usb/dwc3/built-in.o
 .text.dwc3_gadget_ep_enable
                0x000000004023c890      0x100 drivers/usb/dwc3/built-in.o
 .text.__dwc3_gadget_ep_set_halt
                0x000000004023c990      0x124 drivers/usb/dwc3/built-in.o
                0x000000004023c990                __dwc3_gadget_ep_set_halt
 .text.__dwc3_gadget_ep_disable
                0x000000004023cab4       0x8c drivers/usb/dwc3/built-in.o
 .text.dwc3_gadget_stop
                0x000000004023cb40       0x40 drivers/usb/dwc3/built-in.o
 .text.dwc3_gadget_start
                0x000000004023cb80      0x17c drivers/usb/dwc3/built-in.o
 .text.dwc3_gadget_ep_disable
                0x000000004023ccfc       0x88 drivers/usb/dwc3/built-in.o
 .text.dwc3_gadget_ep_set_wedge
                0x000000004023cd84       0x2c drivers/usb/dwc3/built-in.o
 .text.dwc3_gadget_ep_set_halt
                0x000000004023cdb0        0x8 drivers/usb/dwc3/built-in.o
 .text.dwc3_gadget_init
                0x000000004023cdb8      0x198 drivers/usb/dwc3/built-in.o
                0x000000004023cdb8                dwc3_gadget_init
 .text.dwc3_gadget_exit
                0x000000004023cf50       0x48 drivers/usb/dwc3/built-in.o
                0x000000004023cf50                dwc3_gadget_exit
 .text.dwc3_gadget_uboot_handle_interrupt
                0x000000004023cf98      0x610 drivers/usb/dwc3/built-in.o
                0x000000004023cf98                dwc3_gadget_uboot_handle_interrupt
 .text.dwc3_ep0_status_cmpl
                0x000000004023d5a8        0x4 drivers/usb/dwc3/built-in.o
 .text.dwc3_ep0_delegate_req
                0x000000004023d5ac       0x10 drivers/usb/dwc3/built-in.o
 .text.dwc3_ep0_start_trans
                0x000000004023d5bc      0x174 drivers/usb/dwc3/built-in.o
 .text.__dwc3_ep0_do_control_data
                0x000000004023d730      0x158 drivers/usb/dwc3/built-in.o
 .text.dwc3_ep0_handle_feature
                0x000000004023d888      0x110 drivers/usb/dwc3/built-in.o
 .text.__dwc3_ep0_do_control_status
                0x000000004023d998       0x90 drivers/usb/dwc3/built-in.o
 .text.__dwc3_gadget_ep0_queue
                0x000000004023da28      0x104 drivers/usb/dwc3/built-in.o
 .text.dwc3_ep0_set_sel_cmpl
                0x000000004023db2c       0xa0 drivers/usb/dwc3/built-in.o
 .text.dwc3_gadget_ep0_queue
                0x000000004023dbcc       0x2c drivers/usb/dwc3/built-in.o
                0x000000004023dbcc                dwc3_gadget_ep0_queue
 .text.dwc3_ep0_out_start
                0x000000004023dbf8       0x50 drivers/usb/dwc3/built-in.o
                0x000000004023dbf8                dwc3_ep0_out_start
 .text.dwc3_ep0_stall_and_restart
                0x000000004023dc48       0x80 drivers/usb/dwc3/built-in.o
 .text.__dwc3_gadget_ep0_set_halt
                0x000000004023dcc8       0x1c drivers/usb/dwc3/built-in.o
                0x000000004023dcc8                __dwc3_gadget_ep0_set_halt
 .text.dwc3_gadget_ep0_set_halt
                0x000000004023dce4       0x1c drivers/usb/dwc3/built-in.o
                0x000000004023dce4                dwc3_gadget_ep0_set_halt
 .text.dwc3_ep0_interrupt
                0x000000004023dd00      0x71c drivers/usb/dwc3/built-in.o
                0x000000004023dd00                dwc3_ep0_interrupt
 .text.ep_matches.part.0
                0x000000004023e41c      0x1fc drivers/usb/gadget/built-in.o
 .text.usb_ep_autoconfig
                0x000000004023e618      0x124 drivers/usb/gadget/built-in.o
                0x000000004023e618                usb_ep_autoconfig
 .text.usb_ep_autoconfig_reset
                0x000000004023e73c       0x30 drivers/usb/gadget/built-in.o
                0x000000004023e73c                usb_ep_autoconfig_reset
 .text.usb_descriptor_fillbuf
                0x000000004023e76c       0x84 drivers/usb/gadget/built-in.o
                0x000000004023e76c                usb_descriptor_fillbuf
 .text.usb_gadget_get_string
                0x000000004023e7f0      0x194 drivers/usb/gadget/built-in.o
                0x000000004023e7f0                usb_gadget_get_string
 .text.count_configs
                0x000000004023e984       0x84 drivers/usb/gadget/built-in.o
 .text.collect_langs
                0x000000004023ea08       0x44 drivers/usb/gadget/built-in.o
 .text.composite_setup_complete
                0x000000004023ea4c        0x4 drivers/usb/gadget/built-in.o
 .text.count_ext_prop
                0x000000004023ea50       0x58 drivers/usb/gadget/built-in.o
 .text.len_ext_prop
                0x000000004023eaa8       0x60 drivers/usb/gadget/built-in.o
 .text.composite_suspend
                0x000000004023eb08       0x80 drivers/usb/gadget/built-in.o
 .text.composite_resume
                0x000000004023eb88       0x7c drivers/usb/gadget/built-in.o
 .text.g_dnl_unbind
                0x000000004023ec04       0x34 drivers/usb/gadget/built-in.o
 .text.lookup_string
                0x000000004023ec38       0x64 drivers/usb/gadget/built-in.o
 .text.composite_unbind
                0x000000004023ec9c      0x12c drivers/usb/gadget/built-in.o
 .text.composite_bind
                0x000000004023edc8      0x208 drivers/usb/gadget/built-in.o
 .text.g_dnl_do_config
                0x000000004023efd0       0x58 drivers/usb/gadget/built-in.o
 .text.reset_config.isra.0
                0x000000004023f028       0x5c drivers/usb/gadget/built-in.o
 .text.composite_disconnect
                0x000000004023f084       0x4c drivers/usb/gadget/built-in.o
 .text.count_ext_compat
                0x000000004023f0d0       0xb0 drivers/usb/gadget/built-in.o
 .text.composite_setup
                0x000000004023f180      0xf98 drivers/usb/gadget/built-in.o
 .text.usb_add_function
                0x0000000040240118       0xd8 drivers/usb/gadget/built-in.o
                0x0000000040240118                usb_add_function
 .text.usb_interface_id
                0x00000000402401f0       0x30 drivers/usb/gadget/built-in.o
                0x00000000402401f0                usb_interface_id
 .text.usb_add_config
                0x0000000040240220      0x124 drivers/usb/gadget/built-in.o
                0x0000000040240220                usb_add_config
 .text.usb_string_id
                0x0000000040240344       0x28 drivers/usb/gadget/built-in.o
                0x0000000040240344                usb_string_id
 .text.usb_composite_register
                0x000000004024036c       0x74 drivers/usb/gadget/built-in.o
                0x000000004024036c                usb_composite_register
 .text.usb_composite_unregister
                0x00000000402403e0       0x38 drivers/usb/gadget/built-in.o
                0x00000000402403e0                usb_composite_unregister
 .text.g_dnl_set_serialnumber
                0x0000000040240418       0x40 drivers/usb/gadget/built-in.o
                0x0000000040240418                g_dnl_set_serialnumber
 .text.on_serialno
                0x0000000040240458       0x1c drivers/usb/gadget/built-in.o
 .text.g_dnl_bind_fixup
                0x0000000040240474        0x8 drivers/usb/gadget/built-in.o
                0x0000000040240474                g_dnl_bind_fixup
 .text.g_dnl_get_board_bcd_device_number
                0x000000004024047c        0x4 drivers/usb/gadget/built-in.o
                0x000000004024047c                g_dnl_get_board_bcd_device_number
 .text.g_dnl_bind
                0x0000000040240480      0x178 drivers/usb/gadget/built-in.o
 .text.g_dnl_board_usb_cable_connected
                0x00000000402405f8        0x8 drivers/usb/gadget/built-in.o
                0x00000000402405f8                g_dnl_board_usb_cable_connected
 .text.g_dnl_detach
                0x0000000040240600        0xc drivers/usb/gadget/built-in.o
                0x0000000040240600                g_dnl_detach
 .text.g_dnl_trigger_detach
                0x000000004024060c       0x10 drivers/usb/gadget/built-in.o
                0x000000004024060c                g_dnl_trigger_detach
 .text.g_dnl_clear_detach
                0x000000004024061c        0xc drivers/usb/gadget/built-in.o
                0x000000004024061c                g_dnl_clear_detach
 .text.g_dnl_register
                0x0000000040240628       0x4c drivers/usb/gadget/built-in.o
                0x0000000040240628                g_dnl_register
 .text.g_dnl_unregister
                0x0000000040240674        0xc drivers/usb/gadget/built-in.o
                0x0000000040240674                g_dnl_unregister
 .text.board_usb_gadget_port_auto
                0x0000000040240680        0x8 drivers/usb/gadget/built-in.o
                0x0000000040240680                board_usb_gadget_port_auto
 .text.raise_exception
                0x0000000040240688       0x24 drivers/usb/gadget/built-in.o
 .text.ep0_queue
                0x00000000402406ac       0x3c drivers/usb/gadget/built-in.o
 .text.bulk_in_complete
                0x00000000402406e8       0x4c drivers/usb/gadget/built-in.o
 .text.bulk_out_complete
                0x0000000040240734       0x4c drivers/usb/gadget/built-in.o
 .text.fsg_set_alt
                0x0000000040240780       0x28 drivers/usb/gadget/built-in.o
 .text.fsg_disable
                0x00000000402407a8       0x14 drivers/usb/gadget/built-in.o
 .text.fsg_setup
                0x00000000402407bc       0xfc drivers/usb/gadget/built-in.o
 .text.fsg_unbind
                0x00000000402408b8       0x50 drivers/usb/gadget/built-in.o
 .text.store_cdrom_address
                0x0000000040240908       0x60 drivers/usb/gadget/built-in.o
 .text.fsg_set_halt.isra.7
                0x0000000040240968       0x10 drivers/usb/gadget/built-in.o
 .text.start_transfer.isra.9
                0x0000000040240978       0x4c drivers/usb/gadget/built-in.o
 .text.halt_bulk_in_endpoint.isra.14
                0x00000000402409c4       0x48 drivers/usb/gadget/built-in.o
 .text.sleep_thread.isra.17
                0x0000000040240a0c      0x10c drivers/usb/gadget/built-in.o
 .text.do_read  0x0000000040240b18      0x210 drivers/usb/gadget/built-in.o
 .text.do_write
                0x0000000040240d28      0x2f4 drivers/usb/gadget/built-in.o
 .text.send_status
                0x000000004024101c      0x124 drivers/usb/gadget/built-in.o
 .text.check_command.isra.19
                0x0000000040241140      0x184 drivers/usb/gadget/built-in.o
 .text.do_mode_sense.isra.21
                0x00000000402412c4      0x198 drivers/usb/gadget/built-in.o
 .text.fsg_add  0x000000004024145c      0x2c8 drivers/usb/gadget/built-in.o
                0x000000004024145c                fsg_add
 .text.do_set_interface
                0x0000000040241724      0x254 drivers/usb/gadget/built-in.o
 .text.fsg_main_thread
                0x0000000040241978     0x11ec drivers/usb/gadget/built-in.o
                0x0000000040241978                fsg_main_thread
 .text.usb_copy_descriptors
                0x0000000040242b64       0x9c drivers/usb/gadget/built-in.o
                0x0000000040242b64                usb_copy_descriptors
 .text.fsg_bind
                0x0000000040242c00       0xe8 drivers/usb/gadget/built-in.o
 .text.fsg_init
                0x0000000040242ce8       0x20 drivers/usb/gadget/built-in.o
                0x0000000040242ce8                fsg_init
 .text.fastboot_start_ep
                0x0000000040242d08       0x7c drivers/usb/gadget/built-in.o
 .text.fastboot_unbind
                0x0000000040242d84       0x34 drivers/usb/gadget/built-in.o
 .text.fastboot_add
                0x0000000040242db8       0xc8 drivers/usb/gadget/built-in.o
 .text.fastboot_disable
                0x0000000040242e80       0x8c drivers/usb/gadget/built-in.o
 .text.fastboot_complete
                0x0000000040242f0c       0x24 drivers/usb/gadget/built-in.o
 .text.do_acmd_complete
                0x0000000040242f30       0x10 drivers/usb/gadget/built-in.o
 .text.compl_do_reset
                0x0000000040242f40       0x14 drivers/usb/gadget/built-in.o
 .text.do_exit_on_complete
                0x0000000040242f54        0x4 drivers/usb/gadget/built-in.o
 .text.do_bootm_on_complete
                0x0000000040242f58       0x14 drivers/usb/gadget/built-in.o
 .text.fastboot_bind
                0x0000000040242f6c      0x1d0 drivers/usb/gadget/built-in.o
 .text.fastboot_fifo_complete
                0x000000004024313c       0x64 drivers/usb/gadget/built-in.o
 .text.rx_bytes_expected.isra.1
                0x00000000402431a0       0x64 drivers/usb/gadget/built-in.o
 .text.fastboot_set_alt
                0x0000000040243204      0x174 drivers/usb/gadget/built-in.o
 .text.fastboot_tx_write_more
                0x0000000040243378      0x108 drivers/usb/gadget/built-in.o
                0x0000000040243378                fastboot_tx_write_more
 .text.fastboot_tx_write
                0x0000000040243480       0x9c drivers/usb/gadget/built-in.o
                0x0000000040243480                fastboot_tx_write
 .text.fastboot_tx_write_str
                0x000000004024351c       0x28 drivers/usb/gadget/built-in.o
 .text.rx_handler_command
                0x0000000040243544      0x188 drivers/usb/gadget/built-in.o
 .text.rx_handler_dl_image
                0x00000000402436cc       0xc8 drivers/usb/gadget/built-in.o
 .text.usb_gadget_remove_driver
                0x0000000040243794       0x68 drivers/usb/gadget/udc/built-in.o
 .text.usb_udc_release
                0x00000000402437fc        0x8 drivers/usb/gadget/udc/built-in.o
 .text.usb_gadget_map_request
                0x0000000040243804       0x18 drivers/usb/gadget/udc/built-in.o
                0x0000000040243804                usb_gadget_map_request
 .text.usb_gadget_unmap_request
                0x000000004024381c        0x4 drivers/usb/gadget/udc/built-in.o
                0x000000004024381c                usb_gadget_unmap_request
 .text.usb_gadget_giveback_request
                0x0000000040243820        0x8 drivers/usb/gadget/udc/built-in.o
                0x0000000040243820                usb_gadget_giveback_request
 .text.usb_gadget_set_state
                0x0000000040243828        0x8 drivers/usb/gadget/udc/built-in.o
                0x0000000040243828                usb_gadget_set_state
 .text.usb_gadget_udc_reset
                0x0000000040243830       0x2c drivers/usb/gadget/udc/built-in.o
                0x0000000040243830                usb_gadget_udc_reset
 .text.usb_add_gadget_udc_release
                0x000000004024385c       0x74 drivers/usb/gadget/udc/built-in.o
                0x000000004024385c                usb_add_gadget_udc_release
 .text.usb_add_gadget_udc
                0x00000000402438d0        0x8 drivers/usb/gadget/udc/built-in.o
                0x00000000402438d0                usb_add_gadget_udc
 .text.usb_del_gadget_udc
                0x00000000402438d8       0x64 drivers/usb/gadget/udc/built-in.o
                0x00000000402438d8                usb_del_gadget_udc
 .text.usb_gadget_probe_driver
                0x000000004024393c      0x108 drivers/usb/gadget/udc/built-in.o
                0x000000004024393c                usb_gadget_probe_driver
 .text.usb_gadget_register_driver
                0x0000000040243a44        0x4 drivers/usb/gadget/udc/built-in.o
                0x0000000040243a44                usb_gadget_register_driver
 .text.usb_gadget_unregister_driver
                0x0000000040243a48       0x7c drivers/usb/gadget/udc/built-in.o
                0x0000000040243a48                usb_gadget_unregister_driver
 .text.usb_match_device
                0x0000000040243ac4       0xc4 drivers/usb/host/built-in.o
 .text.usb_child_post_bind
                0x0000000040243b88       0x88 drivers/usb/host/built-in.o
 .text.usb_match_one_id_intf.isra.0
                0x0000000040243c10       0x80 drivers/usb/host/built-in.o
 .text.remove_inactive_children.isra.2
                0x0000000040243c90       0x80 drivers/usb/host/built-in.o
 .text.usb_disable_asynch
                0x0000000040243d10       0x1c drivers/usb/host/built-in.o
                0x0000000040243d10                usb_disable_asynch
 .text.submit_int_msg
                0x0000000040243d2c       0x38 drivers/usb/host/built-in.o
                0x0000000040243d2c                submit_int_msg
 .text.submit_control_msg
                0x0000000040243d64       0x9c drivers/usb/host/built-in.o
                0x0000000040243d64                submit_control_msg
 .text.submit_bulk_msg
                0x0000000040243e00       0x34 drivers/usb/host/built-in.o
                0x0000000040243e00                submit_bulk_msg
 .text.usb_alloc_device
                0x0000000040243e34       0x24 drivers/usb/host/built-in.o
                0x0000000040243e34                usb_alloc_device
 .text.usb_reset_root_port
                0x0000000040243e58       0x24 drivers/usb/host/built-in.o
                0x0000000040243e58                usb_reset_root_port
 .text.usb_update_hub_device
                0x0000000040243e7c       0x24 drivers/usb/host/built-in.o
                0x0000000040243e7c                usb_update_hub_device
 .text.usb_get_max_xfer_size
                0x0000000040243ea0       0x20 drivers/usb/host/built-in.o
                0x0000000040243ea0                usb_get_max_xfer_size
 .text.usb_stop
                0x0000000040243ec0       0xb8 drivers/usb/host/built-in.o
                0x0000000040243ec0                usb_stop
 .text.usb_get_bus
                0x0000000040243f78       0x3c drivers/usb/host/built-in.o
                0x0000000040243f78                usb_get_bus
 .text.usb_scan_device
                0x0000000040243fb4      0x2a4 drivers/usb/host/built-in.o
                0x0000000040243fb4                usb_scan_device
 .text.usb_scan_bus.isra.3
                0x0000000040244258       0x80 drivers/usb/host/built-in.o
 .text.usb_init
                0x00000000402442d8      0x1c8 drivers/usb/host/built-in.o
                0x00000000402442d8                usb_init
 .text.usb_child_pre_probe
                0x00000000402444a0       0x84 drivers/usb/host/built-in.o
                0x00000000402444a0                usb_child_pre_probe
 .text.xhci_microframes_to_exponent
                0x0000000040244524       0x78 drivers/usb/host/built-in.o
 .text.xhci_get_max_xfer_size
                0x000000004024459c       0x10 drivers/usb/host/built-in.o
 .text.handshake
                0x00000000402445ac       0x70 drivers/usb/host/built-in.o
 .text.xhci_reset
                0x000000004024461c       0xbc drivers/usb/host/built-in.o
 .text.xhci_submit_bulk_msg
                0x00000000402446d8       0x40 drivers/usb/host/built-in.o
 .text.xhci_get_ep_index
                0x0000000040244718       0x24 drivers/usb/host/built-in.o
 .text.xhci_submit_int_msg
                0x000000004024473c       0x40 drivers/usb/host/built-in.o
 .text.xhci_get_ctrl
                0x000000004024477c       0x38 drivers/usb/host/built-in.o
                0x000000004024477c                xhci_get_ctrl
 .text.xhci_configure_endpoints
                0x00000000402447b4      0x104 drivers/usb/host/built-in.o
 .text.xhci_update_hub_device
                0x00000000402448b8      0x164 drivers/usb/host/built-in.o
 .text.xhci_alloc_device
                0x0000000040244a1c       0xe0 drivers/usb/host/built-in.o
 .text.xhci_submit_control_msg
                0x0000000040244afc      0xa9c drivers/usb/host/built-in.o
 .text.xhci_check_maxpacket
                0x0000000040245598       0xc8 drivers/usb/host/built-in.o
                0x0000000040245598                xhci_check_maxpacket
 .text.xhci_register
                0x0000000040245660      0x198 drivers/usb/host/built-in.o
                0x0000000040245660                xhci_register
 .text.xhci_deregister
                0x00000000402457f8       0x6c drivers/usb/host/built-in.o
                0x00000000402457f8                xhci_deregister
 .text.xhci_ring_free
                0x0000000040245864       0x98 drivers/usb/host/built-in.o
 .text.xhci_flush_cache
                0x00000000402458fc       0x54 drivers/usb/host/built-in.o
                0x00000000402458fc                xhci_flush_cache
 .text.xhci_malloc
                0x0000000040245950       0x7c drivers/usb/host/built-in.o
 .text.xhci_segment_alloc
                0x00000000402459cc       0x64 drivers/usb/host/built-in.o
 .text.xhci_alloc_container_ctx.isra.5
                0x0000000040245a30       0xc8 drivers/usb/host/built-in.o
 .text.xhci_inval_cache
                0x0000000040245af8       0x54 drivers/usb/host/built-in.o
                0x0000000040245af8                xhci_inval_cache
 .text.xhci_cleanup
                0x0000000040245b4c      0x110 drivers/usb/host/built-in.o
                0x0000000040245b4c                xhci_cleanup
 .text.xhci_ring_alloc
                0x0000000040245c5c      0x140 drivers/usb/host/built-in.o
                0x0000000040245c5c                xhci_ring_alloc
 .text.xhci_alloc_virt_device
                0x0000000040245d9c      0x100 drivers/usb/host/built-in.o
                0x0000000040245d9c                xhci_alloc_virt_device
 .text.xhci_mem_init
                0x0000000040245e9c      0x2c8 drivers/usb/host/built-in.o
                0x0000000040245e9c                xhci_mem_init
 .text.xhci_get_input_control_ctx
                0x0000000040246164       0x48 drivers/usb/host/built-in.o
                0x0000000040246164                xhci_get_input_control_ctx
 .text.xhci_get_slot_ctx
                0x00000000402461ac       0x38 drivers/usb/host/built-in.o
                0x00000000402461ac                xhci_get_slot_ctx
 .text.xhci_get_ep_ctx
                0x00000000402461e4       0x3c drivers/usb/host/built-in.o
                0x00000000402461e4                xhci_get_ep_ctx
 .text.xhci_endpoint_copy
                0x0000000040246220       0x5c drivers/usb/host/built-in.o
                0x0000000040246220                xhci_endpoint_copy
 .text.xhci_slot_copy
                0x000000004024627c       0x4c drivers/usb/host/built-in.o
                0x000000004024627c                xhci_slot_copy
 .text.xhci_setup_addressable_virt_dev
                0x00000000402462c8      0x2a0 drivers/usb/host/built-in.o
                0x00000000402462c8                xhci_setup_addressable_virt_dev
 .text.giveback_first_trb
                0x0000000040246568       0x84 drivers/usb/host/built-in.o
 .text.record_transfer_result
                0x00000000402465ec       0xa4 drivers/usb/host/built-in.o
 .text.queue_trb
                0x0000000040246690      0x168 drivers/usb/host/built-in.o
 .text.prepare_ring
                0x00000000402467f8      0x150 drivers/usb/host/built-in.o
 .text.xhci_queue_command
                0x0000000040246948       0xc8 drivers/usb/host/built-in.o
                0x0000000040246948                xhci_queue_command
 .text.xhci_acknowledge_event
                0x0000000040246a10       0xc0 drivers/usb/host/built-in.o
                0x0000000040246a10                xhci_acknowledge_event
 .text.xhci_wait_for_event
                0x0000000040246ad0      0x12c drivers/usb/host/built-in.o
                0x0000000040246ad0                xhci_wait_for_event
 .text.abort_td
                0x0000000040246bfc      0x16c drivers/usb/host/built-in.o
 .text.xhci_bulk_tx
                0x0000000040246d68      0x338 drivers/usb/host/built-in.o
                0x0000000040246d68                xhci_bulk_tx
 .text.xhci_ctrl_tx
                0x00000000402470a0      0x344 drivers/usb/host/built-in.o
                0x00000000402470a0                xhci_ctrl_tx
 .text.xhci_dwc3_remove
                0x00000000402473e4       0x24 drivers/usb/host/built-in.o
 .text.dwc3_set_mode
                0x0000000040247408       0x14 drivers/usb/host/built-in.o
                0x0000000040247408                dwc3_set_mode
 .text.dwc3_core_soft_reset
                0x000000004024741c       0x7c drivers/usb/host/built-in.o
                0x000000004024741c                dwc3_core_soft_reset
 .text.dwc3_core_init
                0x0000000040247498       0x90 drivers/usb/host/built-in.o
                0x0000000040247498                dwc3_core_init
 .text.xhci_dwc3_probe
                0x0000000040247528       0x74 drivers/usb/host/built-in.o
 .text.dwc3_set_fladj
                0x000000004024759c       0x18 drivers/usb/host/built-in.o
                0x000000004024759c                dwc3_set_fladj
 .text.xhci_imx8m_remove
                0x00000000402475b4       0x34 drivers/usb/host/built-in.o
 .text.xhci_imx8m_probe
                0x00000000402475e8      0x17c drivers/usb/host/built-in.o
 .text.env_get_yesno
                0x0000000040247764       0x4c env/built-in.o
                0x0000000040247764                env_get_yesno
 .text.env_get_default
                0x00000000402477b0       0x3c env/built-in.o
                0x00000000402477b0                env_get_default
 .text.set_default_env
                0x00000000402477ec       0x98 env/built-in.o
                0x00000000402477ec                set_default_env
 .text.set_default_vars
                0x0000000040247884       0x2c env/built-in.o
                0x0000000040247884                set_default_vars
 .text.env_import
                0x00000000402478b0       0xcc env/built-in.o
                0x00000000402478b0                env_import
 .text.env_export
                0x000000004024797c       0x80 env/built-in.o
                0x000000004024797c                env_export
 .text.env_relocate
                0x00000000402479fc       0x30 env/built-in.o
                0x00000000402479fc                env_relocate
 .text.env_complete
                0x0000000040247a2c      0x1b0 env/built-in.o
                0x0000000040247a2c                env_complete
 .text.env_get_location
                0x0000000040247bdc       0x18 env/built-in.o
                0x0000000040247bdc                env_get_location
 .text.env_driver_lookup
                0x0000000040247bf4       0x6c env/built-in.o
 .text.env_get_char_spec
                0x0000000040247c60        0xc env/built-in.o
                0x0000000040247c60                env_get_char_spec
 .text.env_get_char
                0x0000000040247c6c       0x20 env/built-in.o
                0x0000000040247c6c                env_get_char
 .text.env_load
                0x0000000040247c8c       0xd0 env/built-in.o
                0x0000000040247c8c                env_load
 .text.env_save
                0x0000000040247d5c       0x94 env/built-in.o
                0x0000000040247d5c                env_save
 .text.env_init
                0x0000000040247df0       0xa0 env/built-in.o
                0x0000000040247df0                env_init
 .text.env_get_offset
                0x0000000040247e90        0x4 env/built-in.o
                0x0000000040247e90                env_get_offset
 .text.regex_callback
                0x0000000040247e94      0x144 env/built-in.o
 .text.env_attr_walk
                0x0000000040247fd8      0x130 env/built-in.o
                0x0000000040247fd8                env_attr_walk
 .text.env_attr_lookup
                0x0000000040248108       0x7c env/built-in.o
                0x0000000040248108                env_attr_lookup
 .text.clear_callback
                0x0000000040248184        0xc env/built-in.o
 .text.find_env_callback
                0x0000000040248190       0x74 env/built-in.o
 .text.on_callbacks
                0x0000000040248204       0x60 env/built-in.o
 .text.set_callback
                0x0000000040248264       0x90 env/built-in.o
 .text.env_callback_init
                0x00000000402482f4       0xb4 env/built-in.o
                0x00000000402482f4                env_callback_init
 .text.skip_num
                0x00000000402483a8       0x68 env/built-in.o
 .text.clear_flags
                0x0000000040248410        0xc env/built-in.o
 .text.on_flags
                0x000000004024841c       0x60 env/built-in.o
 .text.env_flags_parse_vartype
                0x000000004024847c       0x58 env/built-in.o
                0x000000004024847c                env_flags_parse_vartype
 .text.env_flags_parse_varaccess
                0x00000000402484d4       0x5c env/built-in.o
                0x00000000402484d4                env_flags_parse_varaccess
 .text.set_flags
                0x0000000040248530       0xac env/built-in.o
 .text.eth_validate_ethaddr_str
                0x00000000402485dc       0x98 env/built-in.o
                0x00000000402485dc                eth_validate_ethaddr_str
 .text.env_flags_init
                0x0000000040248674       0xbc env/built-in.o
                0x0000000040248674                env_flags_init
 .text.env_flags_validate
                0x0000000040248730      0x278 env/built-in.o
                0x0000000040248730                env_flags_validate
 .text.mmc_get_env_addr
                0x00000000402489a8      0x100 env/built-in.o
                0x00000000402489a8                mmc_get_env_addr
 .text.env_mmc_save
                0x0000000040248aa8      0x11c env/built-in.o
 .text.env_mmc_load
                0x0000000040248bc4      0x108 env/built-in.o
 .text.fs_probe_unsupported
                0x0000000040248ccc       0x20 fs/built-in.o
 .text.fs_ls_unsupported
                0x0000000040248cec        0x8 fs/built-in.o
 .text.fs_exists_unsupported
                0x0000000040248cf4        0x8 fs/built-in.o
 .text.fs_size_unsupported
                0x0000000040248cfc        0x8 fs/built-in.o
 .text.fs_read_unsupported
                0x0000000040248d04        0x8 fs/built-in.o
 .text.fs_close_unsupported
                0x0000000040248d0c        0x4 fs/built-in.o
 .text.fs_opendir_unsupported
                0x0000000040248d10        0x8 fs/built-in.o
 .text.fs_get_info.part.0
                0x0000000040248d18       0x34 fs/built-in.o
 .text.fs_close
                0x0000000040248d4c       0x30 fs/built-in.o
 .text.fs_read_lmb_check.isra.1
                0x0000000040248d7c       0x9c fs/built-in.o
 .text.fs_write_unsupported
                0x0000000040248e18        0x8 fs/built-in.o
 .text.fs_mkdir_unsupported
                0x0000000040248e20        0x8 fs/built-in.o
 .text.fs_uuid_unsupported
                0x0000000040248e28        0x8 fs/built-in.o
 .text.fs_unlink_unsupported
                0x0000000040248e30        0x8 fs/built-in.o
 .text.fs_set_blk_dev
                0x0000000040248e38       0xbc fs/built-in.o
                0x0000000040248e38                fs_set_blk_dev
 .text.fs_set_blk_dev_with_part
                0x0000000040248ef4       0xb8 fs/built-in.o
                0x0000000040248ef4                fs_set_blk_dev_with_part
 .text.fs_ls    0x0000000040248fac       0x44 fs/built-in.o
                0x0000000040248fac                fs_ls
 .text.fs_exists
                0x0000000040248ff0       0x40 fs/built-in.o
                0x0000000040248ff0                fs_exists
 .text.fs_size  0x0000000040249030       0x48 fs/built-in.o
                0x0000000040249030                fs_size
 .text.fs_read  0x0000000040249078       0x58 fs/built-in.o
                0x0000000040249078                fs_read
 .text.fs_write
                0x00000000402490d0       0x88 fs/built-in.o
                0x00000000402490d0                fs_write
 .text.fs_opendir
                0x0000000040249158       0x7c fs/built-in.o
                0x0000000040249158                fs_opendir
 .text.fs_readdir
                0x00000000402491d4       0x68 fs/built-in.o
                0x00000000402491d4                fs_readdir
 .text.fs_closedir
                0x000000004024923c       0x48 fs/built-in.o
                0x000000004024923c                fs_closedir
 .text.fs_ls_generic
                0x0000000040249284       0xc0 fs/built-in.o
 .text.fs_unlink
                0x0000000040249344       0x44 fs/built-in.o
                0x0000000040249344                fs_unlink
 .text.fs_mkdir
                0x0000000040249388       0x44 fs/built-in.o
                0x0000000040249388                fs_mkdir
 .text.do_size  0x00000000402493cc       0x6c fs/built-in.o
                0x00000000402493cc                do_size
 .text.do_load  0x0000000040249438      0x240 fs/built-in.o
                0x0000000040249438                do_load
 .text.do_ls    0x0000000040249678       0x84 fs/built-in.o
                0x0000000040249678                do_ls
 .text.file_exists
                0x00000000402496fc       0x3c fs/built-in.o
                0x00000000402496fc                file_exists
 .text.do_save  0x0000000040249738      0x14c fs/built-in.o
                0x0000000040249738                do_save
 .text.do_rm    0x0000000040249884       0x54 fs/built-in.o
                0x0000000040249884                do_rm
 .text.do_mkdir
                0x00000000402498d8       0x5c fs/built-in.o
                0x00000000402498d8                do_mkdir
 .text.get_fs   0x0000000040249934        0xc fs/built-in.o
                0x0000000040249934                get_fs
 .text.ext4fs_free_node
                0x0000000040249940       0x24 fs/built-in.o
                0x0000000040249940                ext4fs_free_node
 .text.ext4fs_read_file
                0x0000000040249964      0x2c0 fs/built-in.o
                0x0000000040249964                ext4fs_read_file
 .text.ext4fs_ls
                0x0000000040249c24       0x90 fs/built-in.o
                0x0000000040249c24                ext4fs_ls
 .text.ext4fs_exists
                0x0000000040249cb4       0x20 fs/built-in.o
                0x0000000040249cb4                ext4fs_exists
 .text.ext4fs_size
                0x0000000040249cd4        0x4 fs/built-in.o
                0x0000000040249cd4                ext4fs_size
 .text.ext4fs_read
                0x0000000040249cd8       0x30 fs/built-in.o
                0x0000000040249cd8                ext4fs_read
 .text.ext4fs_probe
                0x0000000040249d08       0x3c fs/built-in.o
                0x0000000040249d08                ext4fs_probe
 .text.ext4_read_file
                0x0000000040249d44       0x7c fs/built-in.o
                0x0000000040249d44                ext4_read_file
 .text.ext4fs_uuid
                0x0000000040249dc0       0x38 fs/built-in.o
                0x0000000040249dc0                ext4fs_uuid
 .text.ext4fs_get_group_descriptor
                0x0000000040249df8       0x14 fs/built-in.o
                0x0000000040249df8                ext4fs_get_group_descriptor
 .text.ext4fs_sb_get_free_blocks
                0x0000000040249e0c       0x10 fs/built-in.o
                0x0000000040249e0c                ext4fs_sb_get_free_blocks
 .text.ext4fs_sb_set_free_blocks
                0x0000000040249e1c       0x10 fs/built-in.o
                0x0000000040249e1c                ext4fs_sb_set_free_blocks
 .text.ext4fs_bg_get_free_blocks
                0x0000000040249e2c       0x20 fs/built-in.o
                0x0000000040249e2c                ext4fs_bg_get_free_blocks
 .text.ext4fs_bg_get_block_id
                0x0000000040249e4c       0x20 fs/built-in.o
                0x0000000040249e4c                ext4fs_bg_get_block_id
 .text.ext4fs_bg_get_inode_id
                0x0000000040249e6c       0x20 fs/built-in.o
                0x0000000040249e6c                ext4fs_bg_get_inode_id
 .text.ext4fs_bg_get_inode_table_id
                0x0000000040249e8c       0x20 fs/built-in.o
                0x0000000040249e8c                ext4fs_bg_get_inode_table_id
 .text.ext4fs_div_roundup
                0x0000000040249eac       0x14 fs/built-in.o
                0x0000000040249eac                ext4fs_div_roundup
 .text.put_ext4
                0x0000000040249ec0      0x13c fs/built-in.o
                0x0000000040249ec0                put_ext4
 .text.ext4fs_set_block_bmap
                0x0000000040249ffc       0xac fs/built-in.o
                0x0000000040249ffc                ext4fs_set_block_bmap
 .text.ext4fs_reset_block_bmap
                0x000000004024a0a8       0x9c fs/built-in.o
                0x000000004024a0a8                ext4fs_reset_block_bmap
 .text.ext4fs_set_inode_bmap
                0x000000004024a144       0x78 fs/built-in.o
                0x000000004024a144                ext4fs_set_inode_bmap
 .text.ext4fs_reset_inode_bmap
                0x000000004024a1bc       0x6c fs/built-in.o
                0x000000004024a1bc                ext4fs_reset_inode_bmap
 .text.ext4fs_checksum_update
                0x000000004024a228       0xa0 fs/built-in.o
                0x000000004024a228                ext4fs_checksum_update
 .text.ext4fs_get_new_blk_no
                0x000000004024a2c8      0x400 fs/built-in.o
                0x000000004024a2c8                ext4fs_get_new_blk_no
 .text.ext4fs_get_new_inode_no
                0x000000004024a6c8      0x3e0 fs/built-in.o
                0x000000004024a6c8                ext4fs_get_new_inode_no
 .text.ext4fs_allocate_blocks
                0x000000004024aaa8      0x4ac fs/built-in.o
                0x000000004024aaa8                ext4fs_allocate_blocks
 .text.ext4fs_read_inode
                0x000000004024af54      0x108 fs/built-in.o
                0x000000004024af54                ext4fs_read_inode
 .text.ext4fs_iget
                0x000000004024b05c       0x2c fs/built-in.o
                0x000000004024b05c                ext4fs_iget
 .text.read_allocated_block
                0x000000004024b088      0x848 fs/built-in.o
                0x000000004024b088                read_allocated_block
 .text.ext4fs_update_parent_dentry
                0x000000004024b8d0      0x390 fs/built-in.o
                0x000000004024b8d0                ext4fs_update_parent_dentry
 .text.search_dir
                0x000000004024bc60      0x160 fs/built-in.o
 .text.ext4fs_get_parent_inode_num
                0x000000004024bdc0      0x3f0 fs/built-in.o
                0x000000004024bdc0                ext4fs_get_parent_inode_num
 .text.ext4fs_filename_unlink
                0x000000004024c1b0      0x1dc fs/built-in.o
                0x000000004024c1b0                ext4fs_filename_unlink
 .text.ext4fs_reinit_global
                0x000000004024c38c       0x90 fs/built-in.o
                0x000000004024c38c                ext4fs_reinit_global
 .text.ext4fs_close
                0x000000004024c41c       0x4c fs/built-in.o
                0x000000004024c41c                ext4fs_close
 .text.ext4fs_iterate_dir
                0x000000004024c468      0x290 fs/built-in.o
                0x000000004024c468                ext4fs_iterate_dir
 .text.ext4fs_find_file1
                0x000000004024c6f8      0x290 fs/built-in.o
 .text.ext4fs_find_file
                0x000000004024c988       0x74 fs/built-in.o
                0x000000004024c988                ext4fs_find_file
 .text.ext4fs_open
                0x000000004024c9fc       0xa0 fs/built-in.o
                0x000000004024c9fc                ext4fs_open
 .text.ext4fs_mount
                0x000000004024ca9c       0xec fs/built-in.o
                0x000000004024ca9c                ext4fs_mount
 .text.ext4fs_set_blk_dev
                0x000000004024cb88       0x5c fs/built-in.o
                0x000000004024cb88                ext4fs_set_blk_dev
 .text.ext4fs_devread
                0x000000004024cbe4       0x50 fs/built-in.o
                0x000000004024cbe4                ext4fs_devread
 .text.ext4_read_superblock
                0x000000004024cc34       0x48 fs/built-in.o
                0x000000004024cc34                ext4_read_superblock
 .text.ext4fs_update
                0x000000004024cc7c      0x110 fs/built-in.o
 .text.ext4fs_get_bgdtable
                0x000000004024cd8c       0xd0 fs/built-in.o
                0x000000004024cd8c                ext4fs_get_bgdtable
 .text.ext4fs_deinit
                0x000000004024ce5c      0x184 fs/built-in.o
                0x000000004024ce5c                ext4fs_deinit
 .text.ext4fs_init
                0x000000004024cfe0      0x2e4 fs/built-in.o
                0x000000004024cfe0                ext4fs_init
 .text.ext4fs_write
                0x000000004024d2c4     0x1114 fs/built-in.o
                0x000000004024d2c4                ext4fs_write
 .text.ext4_write_file
                0x000000004024e3d8       0x5c fs/built-in.o
                0x000000004024e3d8                ext4_write_file
 .text.ext4fs_dump_metadata
                0x000000004024e434       0x68 fs/built-in.o
                0x000000004024e434                ext4fs_dump_metadata
 .text.ext4fs_free_journal
                0x000000004024e49c       0xcc fs/built-in.o
                0x000000004024e49c                ext4fs_free_journal
 .text.ext4fs_log_gdt
                0x000000004024e568       0xe4 fs/built-in.o
                0x000000004024e568                ext4fs_log_gdt
 .text.ext4fs_log_journal
                0x000000004024e64c       0xfc fs/built-in.o
                0x000000004024e64c                ext4fs_log_journal
 .text.ext4fs_put_metadata
                0x000000004024e748       0xdc fs/built-in.o
                0x000000004024e748                ext4fs_put_metadata
 .text.ext4fs_push_revoke_blk
                0x000000004024e824       0xf0 fs/built-in.o
                0x000000004024e824                ext4fs_push_revoke_blk
 .text.ext4fs_free_revoke_blks
                0x000000004024e914       0x68 fs/built-in.o
                0x000000004024e914                ext4fs_free_revoke_blks
 .text.check_blknr_for_revoke
                0x000000004024e97c       0x60 fs/built-in.o
                0x000000004024e97c                check_blknr_for_revoke
 .text.recover_transaction
                0x000000004024e9dc      0x16c fs/built-in.o
                0x000000004024e9dc                recover_transaction
 .text.print_jrnl_status
                0x000000004024eb48       0x20 fs/built-in.o
                0x000000004024eb48                print_jrnl_status
 .text.ext4fs_check_journal_state
                0x000000004024eb68      0x2d8 fs/built-in.o
                0x000000004024eb68                ext4fs_check_journal_state
 .text.ext4fs_init_journal
                0x000000004024ee40      0x238 fs/built-in.o
                0x000000004024ee40                ext4fs_init_journal
 .text.ext4fs_update_journal
                0x000000004024f078      0x320 fs/built-in.o
                0x000000004024f078                ext4fs_update_journal
 .text.ext2fs_crc16
                0x000000004024f398       0x3c fs/built-in.o
                0x000000004024f398                ext2fs_crc16
 .text.downcase
                0x000000004024f3d4       0x3c fs/built-in.o
 .text.mkcksum  0x000000004024f410       0x54 fs/built-in.o
 .text.fat_itr_child
                0x000000004024f464       0x74 fs/built-in.o
 .text.disk_read
                0x000000004024f4d8       0x64 fs/built-in.o
 .text.get_cluster
                0x000000004024f53c      0x174 fs/built-in.o
 .text.read_bootsectandvi
                0x000000004024f6b0      0x134 fs/built-in.o
 .text.fat_itr_root
                0x000000004024f7e4      0x1cc fs/built-in.o
 .text.split_filename
                0x000000004024f9b0       0xf4 fs/built-in.o
 .text.disk_write
                0x000000004024faa4       0x88 fs/built-in.o
 .text.flush_dirty_fat_buffer
                0x000000004024fb2c       0xb4 fs/built-in.o
 .text.get_fatent
                0x000000004024fbe0      0x1a0 fs/built-in.o
 .text.next_dent
                0x000000004024fd80      0x140 fs/built-in.o
 .text.set_fatent_value
                0x000000004024fec0      0x22c fs/built-in.o
 .text.determine_fatent
                0x00000000402500ec       0x58 fs/built-in.o
 .text.clear_fatent
                0x0000000040250144       0x9c fs/built-in.o
 .text.set_cluster
                0x00000000402501e0      0x180 fs/built-in.o
 .text.set_contents
                0x0000000040250360      0x808 fs/built-in.o
 .text.normalize_longname
                0x0000000040250b68       0xf8 fs/built-in.o
 .text.set_name
                0x0000000040250c60      0x16c fs/built-in.o
 .text.fat_itr_next
                0x0000000040250dcc      0x270 fs/built-in.o
 .text.fat_itr_resolve
                0x000000004025103c      0x188 fs/built-in.o
 .text.flush_dir_table
                0x00000000402511c4      0x110 fs/built-in.o
 .text.fill_dir_slot
                0x00000000402512d4      0x288 fs/built-in.o
 .text.find_directory_entry
                0x000000004025155c       0xa0 fs/built-in.o
 .text.fat_set_blk_dev
                0x00000000402515fc       0xcc fs/built-in.o
                0x00000000402515fc                fat_set_blk_dev
 .text.file_fat_detectfs
                0x00000000402516c8      0x140 fs/built-in.o
                0x00000000402516c8                file_fat_detectfs
 .text.fat_exists
                0x0000000040251808       0x80 fs/built-in.o
                0x0000000040251808                fat_exists
 .text.fat_size
                0x0000000040251888       0xc4 fs/built-in.o
                0x0000000040251888                fat_size
 .text.file_fat_read_at
                0x000000004025194c      0x384 fs/built-in.o
                0x000000004025194c                file_fat_read_at
 .text.fat_read_file
                0x0000000040251cd0       0x48 fs/built-in.o
                0x0000000040251cd0                fat_read_file
 .text.fat_opendir
                0x0000000040251d18       0xac fs/built-in.o
                0x0000000040251d18                fat_opendir
 .text.fat_readdir
                0x0000000040251dc4       0x8c fs/built-in.o
                0x0000000040251dc4                fat_readdir
 .text.fat_closedir
                0x0000000040251e50       0x28 fs/built-in.o
                0x0000000040251e50                fat_closedir
 .text.fat_close
                0x0000000040251e78        0x4 fs/built-in.o
                0x0000000040251e78                fat_close
 .text.file_fat_write_at
                0x0000000040251e7c      0x2a0 fs/built-in.o
                0x0000000040251e7c                file_fat_write_at
 .text.file_fat_write
                0x000000004025211c       0x10 fs/built-in.o
                0x000000004025211c                file_fat_write
 .text.fat_unlink
                0x000000004025212c      0x2b0 fs/built-in.o
                0x000000004025212c                fat_unlink
 .text.fat_mkdir
                0x00000000402523dc      0x3b4 fs/built-in.o
                0x00000000402523dc                fat_mkdir
 .text.fs_devread
                0x0000000040252790      0x24c fs/built-in.o
                0x0000000040252790                fs_devread
 .text.efi_uc_destroy
                0x00000000402529dc       0x20 lib/built-in.o
 .text.efi_uc_init
                0x00000000402529fc       0x20 lib/built-in.o
 .text.check_node_type
                0x0000000040252a1c       0x80 lib/built-in.o
 .text.efi_uc_start
                0x0000000040252a9c       0xe0 lib/built-in.o
 .text.efi_uc_supported
                0x0000000040252b7c       0xd0 lib/built-in.o
 .text.disconnect_child
                0x0000000040252c4c       0x84 lib/built-in.o
 .text.efi_uc_stop
                0x0000000040252cd0      0x150 lib/built-in.o
 .text.efi_driver_init
                0x0000000040252e20      0x12c lib/built-in.o
                0x0000000040252e20                efi_driver_init
 .text.efi_bl_write
                0x0000000040252f4c       0x6c lib/built-in.o
 .text.efi_bl_read
                0x0000000040252fb8       0x6c lib/built-in.o
 .text.efi_bl_bind
                0x0000000040253024      0x128 lib/built-in.o
 .text.get_var.constprop.0
                0x000000004025314c       0xd4 lib/built-in.o
 .text.efi_deserialize_load_option
                0x0000000040253220       0x74 lib/built-in.o
                0x0000000040253220                efi_deserialize_load_option
 .text.efi_bootmgr_load
                0x0000000040253294      0x17c lib/built-in.o
                0x0000000040253294                efi_bootmgr_load
 .text.efi_is_event
                0x0000000040253410       0x40 lib/built-in.o
 .text.__efi_entry_check
                0x0000000040253450       0x2c lib/built-in.o
                0x0000000040253450                __efi_entry_check
 .text.__efi_exit_check
                0x000000004025347c       0x20 lib/built-in.o
                0x000000004025347c                __efi_exit_check
 .text.efi_queue_event
                0x000000004025349c       0x60 lib/built-in.o
 .text.efi_start_image
                0x00000000402534fc       0x9c lib/built-in.o
                0x00000000402534fc                efi_start_image
 .text.efi_set_mem
                0x0000000040253598       0x30 lib/built-in.o
 .text.efi_copy_mem
                0x00000000402535c8       0x30 lib/built-in.o
 .text.efi_calculate_crc32
                0x00000000402535f8       0x44 lib/built-in.o
 .text.efi_set_watchdog_timer
                0x000000004025363c       0x2c lib/built-in.o
 .text.efi_stall
                0x0000000040253668       0x28 lib/built-in.o
 .text.efi_get_next_monotonic_count
                0x0000000040253690       0x34 lib/built-in.o
 .text.efi_register_protocol_notify
                0x00000000402536c4       0x20 lib/built-in.o
 .text.efi_close_event
                0x00000000402536e4       0x60 lib/built-in.o
 .text.efi_free_pool_ext
                0x0000000040253744       0x2c lib/built-in.o
 .text.efi_allocate_pool_ext
                0x0000000040253770       0x3c lib/built-in.o
 .text.efi_get_memory_map_ext
                0x00000000402537ac       0x3c lib/built-in.o
 .text.efi_free_pages_ext
                0x00000000402537e8       0x34 lib/built-in.o
 .text.efi_allocate_pages_ext
                0x000000004025381c       0x3c lib/built-in.o
 .text.efi_raise_tpl
                0x0000000040253858       0x38 lib/built-in.o
 .text.efi_save_gd
                0x0000000040253890        0xc lib/built-in.o
                0x0000000040253890                efi_save_gd
 .text.efi_restore_gd
                0x000000004025389c       0x14 lib/built-in.o
                0x000000004025389c                efi_restore_gd
 .text.efi_exit
                0x00000000402538b0       0x38 lib/built-in.o
 .text.is_valid_tpl
                0x00000000402538e8       0x38 lib/built-in.o
                0x00000000402538e8                is_valid_tpl
 .text.efi_signal_event
                0x0000000040253920      0x100 lib/built-in.o
                0x0000000040253920                efi_signal_event
 .text.efi_exit_boot_services
                0x0000000040253a20      0x10c lib/built-in.o
 .text.efi_signal_event_ext
                0x0000000040253b2c       0x54 lib/built-in.o
 .text.efi_add_handle
                0x0000000040253b80       0x2c lib/built-in.o
                0x0000000040253b80                efi_add_handle
 .text.efi_create_handle
                0x0000000040253bac       0x48 lib/built-in.o
                0x0000000040253bac                efi_create_handle
 .text.efi_create_event
                0x0000000040253bf4      0x114 lib/built-in.o
                0x0000000040253bf4                efi_create_event
 .text.efi_create_event_ex
                0x0000000040253d08       0x3c lib/built-in.o
                0x0000000040253d08                efi_create_event_ex
 .text.efi_create_event_ext
                0x0000000040253d44       0x44 lib/built-in.o
 .text.efi_timer_check
                0x0000000040253d88       0xa4 lib/built-in.o
                0x0000000040253d88                efi_timer_check
 .text.efi_check_event
                0x0000000040253e2c       0x80 lib/built-in.o
 .text.efi_wait_for_event
                0x0000000040253eac       0xf8 lib/built-in.o
 .text.efi_restore_tpl
                0x0000000040253fa4       0x30 lib/built-in.o
 .text.efi_set_timer
                0x0000000040253fd4       0x80 lib/built-in.o
                0x0000000040253fd4                efi_set_timer
 .text.efi_set_timer_ext
                0x0000000040254054       0x3c lib/built-in.o
 .text.efi_search_obj
                0x0000000040254090       0x30 lib/built-in.o
                0x0000000040254090                efi_search_obj
 .text.efi_search_protocol
                0x00000000402540c0       0x94 lib/built-in.o
                0x00000000402540c0                efi_search_protocol
 .text.efi_remove_protocol
                0x0000000040254154       0x88 lib/built-in.o
                0x0000000040254154                efi_remove_protocol
 .text.efi_locate_protocol
                0x00000000402541dc       0xa0 lib/built-in.o
 .text.efi_open_protocol_information
                0x000000004025427c      0x10c lib/built-in.o
 .text.efi_close_protocol
                0x0000000040254388       0xb8 lib/built-in.o
 .text.efi_locate_handle
                0x0000000040254440      0x130 lib/built-in.o
 .text.efi_locate_handle_buffer
                0x0000000040254570       0xdc lib/built-in.o
 .text.efi_locate_device_path
                0x000000004025464c      0x140 lib/built-in.o
 .text.efi_locate_handle_ext
                0x000000004025478c       0x3c lib/built-in.o
 .text.efi_remove_all_protocols
                0x00000000402547c8       0x6c lib/built-in.o
                0x00000000402547c8                efi_remove_all_protocols
 .text.efi_delete_handle
                0x0000000040254834       0x3c lib/built-in.o
                0x0000000040254834                efi_delete_handle
 .text.efi_protocols_per_handle
                0x0000000040254870       0xdc lib/built-in.o
 .text.efi_disconnect_controller
                0x000000004025494c      0x26c lib/built-in.o
 .text.efi_disconnect_all_drivers
                0x0000000040254bb8      0x188 lib/built-in.o
 .text.efi_open_protocol
                0x0000000040254d40      0x264 lib/built-in.o
 .text.efi_bind_controller
                0x0000000040254fa4       0xcc lib/built-in.o
 .text.efi_handle_protocol
                0x0000000040255070       0x10 lib/built-in.o
 .text.efi_uninstall_protocol
                0x0000000040255080       0xe4 lib/built-in.o
 .text.efi_uninstall_protocol_interface
                0x0000000040255164       0x70 lib/built-in.o
 .text.efi_connect_controller
                0x00000000402551d4      0x1c8 lib/built-in.o
 .text.efi_unload_image
                0x000000004025539c       0x3c lib/built-in.o
 .text.efi_add_protocol
                0x00000000402553d8       0xb8 lib/built-in.o
                0x00000000402553d8                efi_add_protocol
 .text.efi_reinstall_protocol_interface
                0x0000000040255490       0x88 lib/built-in.o
 .text.efi_install_protocol_interface
                0x0000000040255518       0x88 lib/built-in.o
 .text.efi_uninstall_multiple_protocol_interfaces
                0x00000000402555a0      0x1d0 lib/built-in.o
 .text.efi_install_multiple_protocol_interfaces
                0x0000000040255770      0x1c4 lib/built-in.o
 .text.efi_install_configuration_table
                0x0000000040255934      0x1c8 lib/built-in.o
                0x0000000040255934                efi_install_configuration_table
 .text.efi_install_configuration_table_ext
                0x0000000040255afc       0x34 lib/built-in.o
 .text.efi_setup_loaded_image
                0x0000000040255b30      0x114 lib/built-in.o
                0x0000000040255b30                efi_setup_loaded_image
 .text.efi_load_image_from_path
                0x0000000040255c44      0x17c lib/built-in.o
                0x0000000040255c44                efi_load_image_from_path
 .text.efi_load_image
                0x0000000040255dc0      0x160 lib/built-in.o
 .text.efi_initialize_system_table
                0x0000000040255f20       0x58 lib/built-in.o
                0x0000000040255f20                efi_initialize_system_table
 .text.efi_cout_enable_cursor
                0x0000000040255f78       0x44 lib/built-in.o
 .text.efi_cout_set_cursor_position
                0x0000000040255fbc       0xb0 lib/built-in.o
 .text.efi_cout_clear_screen
                0x000000004025606c       0x34 lib/built-in.o
 .text.efi_cout_set_attribute
                0x00000000402560a0       0x68 lib/built-in.o
 .text.efi_cout_set_mode
                0x0000000040256108       0x50 lib/built-in.o
 .text.efi_cout_test_string
                0x0000000040256158       0x1c lib/built-in.o
 .text.efi_cout_reset
                0x0000000040256174       0x44 lib/built-in.o
 .text.efi_cin_set_state
                0x00000000402561b8       0x1c lib/built-in.o
 .text.efi_cout_output_string
                0x00000000402561d4      0x154 lib/built-in.o
 .text.efi_cin_unregister_key_notify
                0x0000000040256328       0x84 lib/built-in.o
 .text.efi_cin_empty_buffer
                0x00000000402563ac       0x28 lib/built-in.o
 .text.efi_cin_reset
                0x00000000402563d4       0x40 lib/built-in.o
 .text.efi_cin_reset_ex
                0x0000000040256414       0x40 lib/built-in.o
 .text.efi_cin_register_key_notify
                0x0000000040256454       0xb4 lib/built-in.o
 .text.term_get_char
                0x0000000040256508       0x50 lib/built-in.o
 .text.efi_cout_query_mode
                0x0000000040256558       0x94 lib/built-in.o
 .text.set_shift_mask
                0x00000000402565ec       0x5c lib/built-in.o
                0x00000000402565ec                set_shift_mask
 .text.analyze_modifiers.constprop.5
                0x0000000040256648       0xa8 lib/built-in.o
 .text.efi_cin_check
                0x00000000402566f0      0x2c8 lib/built-in.o
 .text.efi_cin_read_key_stroke
                0x00000000402569b8       0x8c lib/built-in.o
 .text.efi_console_timer_notify
                0x0000000040256a44       0x18 lib/built-in.o
 .text.efi_cin_read_key_stroke_ex
                0x0000000040256a5c       0x94 lib/built-in.o
 .text.efi_key_notify
                0x0000000040256af0       0x18 lib/built-in.o
 .text.efi_console_register
                0x0000000040256b08      0x300 lib/built-in.o
                0x0000000040256b08                efi_console_register
 .text.dp_size  0x0000000040256e08       0x9c lib/built-in.o
 .text.dp_alloc
                0x0000000040256ea4       0x4c lib/built-in.o
 .text.dp_part_size
                0x0000000040256ef0       0x60 lib/built-in.o
 .text.dp_part_node
                0x0000000040256f50      0x1f4 lib/built-in.o
 .text.dp_fill  0x0000000040257144      0x21c lib/built-in.o
 .text.dp_part_fill
                0x0000000040257360       0x74 lib/built-in.o
 .text.efi_dp_next
                0x00000000402573d4       0x38 lib/built-in.o
                0x00000000402573d4                efi_dp_next
 .text.efi_dp_match
                0x000000004025740c       0x80 lib/built-in.o
                0x000000004025740c                efi_dp_match
 .text.efi_dp_last_node
                0x000000004025748c       0x48 lib/built-in.o
                0x000000004025748c                efi_dp_last_node
 .text.efi_dp_instance_size
                0x00000000402574d4       0x4c lib/built-in.o
                0x00000000402574d4                efi_dp_instance_size
 .text.find_obj
                0x0000000040257520      0x118 lib/built-in.o
 .text.efi_dp_find_obj
                0x0000000040257638       0x5c lib/built-in.o
                0x0000000040257638                efi_dp_find_obj
 .text.efi_dp_size
                0x0000000040257694       0x44 lib/built-in.o
                0x0000000040257694                efi_dp_size
 .text.efi_dp_dup
                0x00000000402576d8       0x58 lib/built-in.o
                0x00000000402576d8                efi_dp_dup
 .text.efi_dp_append
                0x0000000040257730       0xb4 lib/built-in.o
                0x0000000040257730                efi_dp_append
 .text.efi_dp_append_node
                0x00000000402577e4       0xe8 lib/built-in.o
                0x00000000402577e4                efi_dp_append_node
 .text.efi_dp_create_device_node
                0x00000000402578cc       0x50 lib/built-in.o
                0x00000000402578cc                efi_dp_create_device_node
 .text.efi_dp_append_instance
                0x000000004025791c       0xc4 lib/built-in.o
                0x000000004025791c                efi_dp_append_instance
 .text.efi_dp_get_next_instance
                0x00000000402579e0       0xa0 lib/built-in.o
                0x00000000402579e0                efi_dp_get_next_instance
 .text.efi_dp_is_multi_instance
                0x0000000040257a80       0x38 lib/built-in.o
                0x0000000040257a80                efi_dp_is_multi_instance
 .text.efi_dp_from_part
                0x0000000040257ab8       0x60 lib/built-in.o
                0x0000000040257ab8                efi_dp_from_part
 .text.efi_dp_part_node
                0x0000000040257b18       0x54 lib/built-in.o
                0x0000000040257b18                efi_dp_part_node
 .text.efi_dp_from_file
                0x0000000040257b6c       0xd4 lib/built-in.o
                0x0000000040257b6c                efi_dp_from_file
 .text.efi_dp_from_eth
                0x0000000040257c40       0x5c lib/built-in.o
                0x0000000040257c40                efi_dp_from_eth
 .text.efi_dp_from_mem
                0x0000000040257c9c      0x104 lib/built-in.o
                0x0000000040257c9c                efi_dp_from_mem
 .text.efi_dp_split_file_path
                0x0000000040257da0       0xb4 lib/built-in.o
                0x0000000040257da0                efi_dp_split_file_path
 .text.efi_dp_from_name
                0x0000000040257e54      0x118 lib/built-in.o
                0x0000000040257e54                efi_dp_from_name
 .text.dp_unknown
                0x0000000040257f6c       0x34 lib/built-in.o
 .text.efi_convert_single_device_node_to_text
                0x0000000040257fa0      0x45c lib/built-in.o
 .text.efi_str_to_u16
                0x00000000402583fc       0x60 lib/built-in.o
 .text.efi_convert_device_path_to_text
                0x000000004025845c       0x88 lib/built-in.o
 .text.efi_convert_device_node_to_text
                0x00000000402584e4       0x4c lib/built-in.o
 .text.efi_dp_str
                0x0000000040258530       0x3c lib/built-in.o
                0x0000000040258530                efi_dp_str
 .text.create_device_node
                0x000000004025856c       0x4c lib/built-in.o
 .text.is_device_path_multi_instance
                0x00000000402585b8       0x34 lib/built-in.o
 .text.get_next_device_path_instance
                0x00000000402585ec       0x3c lib/built-in.o
 .text.append_device_path_instance
                0x0000000040258628       0x3c lib/built-in.o
 .text.append_device_node
                0x0000000040258664       0x3c lib/built-in.o
 .text.append_device_path
                0x00000000402586a0       0x3c lib/built-in.o
 .text.duplicate_device_path
                0x00000000402586dc       0x34 lib/built-in.o
 .text.get_device_path_size
                0x0000000040258710       0x40 lib/built-in.o
 .text.efi_file_flush
                0x0000000040258750       0x1c lib/built-in.o
 .text.efi_file_setinfo
                0x000000004025876c       0x1c lib/built-in.o
 .text.efi_file_getpos
                0x0000000040258788       0x48 lib/built-in.o
 .text.set_blk_dev.isra.0
                0x00000000402587d0        0xc lib/built-in.o
 .text.file_open
                0x00000000402587dc      0x2a4 lib/built-in.o
 .text.efi_open_volume
                0x0000000040258a80       0x48 lib/built-in.o
 .text.efi_file_open
                0x0000000040258ac8       0xb4 lib/built-in.o
 .text.efi_file_getinfo
                0x0000000040258b7c      0x1c8 lib/built-in.o
 .text.efi_file_setpos
                0x0000000040258d44       0x88 lib/built-in.o
 .text.efi_file_write
                0x0000000040258dcc       0x80 lib/built-in.o
 .text.efi_file_read
                0x0000000040258e4c      0x1b0 lib/built-in.o
 .text.efi_file_delete
                0x0000000040258ffc       0x60 lib/built-in.o
 .text.efi_file_close
                0x000000004025905c       0x38 lib/built-in.o
 .text.efi_file_from_path
                0x0000000040259094      0x10c lib/built-in.o
                0x0000000040259094                efi_file_from_path
 .text.efi_simple_file_system
                0x00000000402591a0       0x50 lib/built-in.o
                0x00000000402591a0                efi_simple_file_system
 .text.efi_set_code_and_data_type
                0x00000000402591f0       0x8c lib/built-in.o
 .text.efi_load_pe
                0x000000004025927c      0x320 lib/built-in.o
                0x000000004025927c                efi_load_pe
 .text.efi_mem_cmp
                0x000000004025959c       0x1c lib/built-in.o
 .text.efi_find_free_memory
                0x00000000402595b8       0x6c lib/built-in.o
 .text.efi_add_memory_map
                0x0000000040259624      0x2ac lib/built-in.o
                0x0000000040259624                efi_add_memory_map
 .text.efi_allocate_pages
                0x00000000402598d0       0xac lib/built-in.o
                0x00000000402598d0                efi_allocate_pages
 .text.efi_alloc
                0x000000004025997c       0x34 lib/built-in.o
                0x000000004025997c                efi_alloc
 .text.efi_free_pages
                0x00000000402599b0       0x38 lib/built-in.o
                0x00000000402599b0                efi_free_pages
 .text.efi_allocate_pool
                0x00000000402599e8       0x70 lib/built-in.o
                0x00000000402599e8                efi_allocate_pool
 .text.efi_free_pool
                0x0000000040259a58       0x1c lib/built-in.o
                0x0000000040259a58                efi_free_pool
 .text.efi_get_memory_map
                0x0000000040259a74       0xe8 lib/built-in.o
                0x0000000040259a74                efi_get_memory_map
 .text.efi_add_known_memory
                0x0000000040259b5c       0xe0 lib/built-in.o
                0x0000000040259b5c                efi_add_known_memory
 .text.efi_memory_init
                0x0000000040259c3c       0x74 lib/built-in.o
                0x0000000040259c3c                efi_memory_init
 .text.efi_root_node_register
                0x0000000040259cb0      0x158 lib/built-in.o
                0x0000000040259cb0                efi_root_node_register
 .text.efi_reset_system_boottime
                0x0000000040259e08       0x94 lib/built-in.o
 .text.efi_get_time_boottime
                0x0000000040259e9c       0x1c lib/built-in.o
 .text.efi_reset_system_init
                0x0000000040259eb8        0x8 lib/built-in.o
                0x0000000040259eb8                efi_reset_system_init
 .text.efi_set_virtual_address_map
                0x0000000040259ec0      0x190 lib/built-in.o
 .text.efi_init_obj_list
                0x000000004025a050       0x78 lib/built-in.o
                0x000000004025a050                efi_init_obj_list
 .text.metai_match
                0x000000004025a0c8      0x11c lib/built-in.o
 .text.efi_str_to_fat
                0x000000004025a1e4       0xd8 lib/built-in.o
 .text.efi_fat_to_str
                0x000000004025a2bc       0x6c lib/built-in.o
 .text.efi_str_upr
                0x000000004025a328       0x34 lib/built-in.o
 .text.efi_metai_match
                0x000000004025a35c       0x3c lib/built-in.o
 .text.efi_stri_coll
                0x000000004025a398       0x7c lib/built-in.o
 .text.efi_str_lwr
                0x000000004025a414       0x34 lib/built-in.o
 .text.efi_to_native
                0x000000004025a448       0x9c lib/built-in.o
 .text.prefix   0x000000004025a4e4       0x50 lib/built-in.o
 .text.parse_attr.part.0
                0x000000004025a534       0xc0 lib/built-in.o
 .text.efi_get_variable
                0x000000004025a5f4      0x238 lib/built-in.o
                0x000000004025a5f4                efi_get_variable
 .text.efi_get_next_variable_name
                0x000000004025a82c      0x278 lib/built-in.o
                0x000000004025a82c                efi_get_next_variable_name
 .text.efi_set_variable
                0x000000004025aaa4      0x234 lib/built-in.o
                0x000000004025aaa4                efi_set_variable
 .text.efi_watchdog_timer_notify
                0x000000004025acd8       0x44 lib/built-in.o
 .text.efi_set_watchdog
                0x000000004025ad1c       0x30 lib/built-in.o
                0x000000004025ad1c                efi_set_watchdog
 .text.efi_watchdog_register
                0x000000004025ad4c       0x80 lib/built-in.o
                0x000000004025ad4c                efi_watchdog_register
 .text.efi_disk_flush_blocks
                0x000000004025adcc       0x1c lib/built-in.o
 .text.efi_disk_reset
                0x000000004025ade8       0x1c lib/built-in.o
 .text.efi_disk_add_dev.isra.0.part.1
                0x000000004025ae04      0x1c8 lib/built-in.o
 .text.efi_disk_read_blocks
                0x000000004025afcc       0x94 lib/built-in.o
 .text.efi_disk_write_blocks
                0x000000004025b060       0x94 lib/built-in.o
 .text.efi_fs_from_path
                0x000000004025b0f4       0x74 lib/built-in.o
                0x000000004025b0f4                efi_fs_from_path
 .text.efi_disk_create_partitions
                0x000000004025b168       0xfc lib/built-in.o
                0x000000004025b168                efi_disk_create_partitions
 .text.efi_disk_register
                0x000000004025b264      0x12c lib/built-in.o
                0x000000004025b264                efi_disk_register
 .text.efi_net_push
                0x000000004025b390       0x1c lib/built-in.o
 .text.efi_network_timer_notify
                0x000000004025b3ac       0x58 lib/built-in.o
 .text.efi_net_nvdata
                0x000000004025b404       0x1c lib/built-in.o
 .text.efi_net_mcastiptomac
                0x000000004025b420       0x20 lib/built-in.o
 .text.efi_net_statistics
                0x000000004025b440       0x1c lib/built-in.o
 .text.efi_net_station_address
                0x000000004025b45c       0x1c lib/built-in.o
 .text.efi_net_receive_filters
                0x000000004025b478       0x1c lib/built-in.o
 .text.efi_net_stop
                0x000000004025b494       0x54 lib/built-in.o
 .text.efi_net_start
                0x000000004025b4e8       0x58 lib/built-in.o
 .text.efi_net_get_status
                0x000000004025b540       0xa8 lib/built-in.o
 .text.efi_net_receive
                0x000000004025b5e8      0x180 lib/built-in.o
 .text.efi_net_transmit
                0x000000004025b768       0xa8 lib/built-in.o
 .text.efi_net_shutdown
                0x000000004025b810       0x48 lib/built-in.o
 .text.efi_net_initialize
                0x000000004025b858       0x70 lib/built-in.o
 .text.efi_net_reset
                0x000000004025b8c8       0x44 lib/built-in.o
 .text.efi_net_set_dhcp_ack
                0x000000004025b90c       0x54 lib/built-in.o
                0x000000004025b90c                efi_net_set_dhcp_ack
 .text.efi_net_register
                0x000000004025b960      0x294 lib/built-in.o
                0x000000004025b960                efi_net_register
 .text.efi_smbios_register
                0x000000004025bbf4       0x70 lib/built-in.o
                0x000000004025bbf4                efi_smbios_register
 .text.LzmaDec_WriteRem
                0x000000004025bc64       0xa0 lib/built-in.o
 .text.LzmaDec_DecodeReal2
                0x000000004025bd04      0xbe4 lib/built-in.o
 .text.LzmaDec_TryDummy
                0x000000004025c8e8      0x5e4 lib/built-in.o
 .text.LzmaDec_Init
                0x000000004025cecc       0x1c lib/built-in.o
                0x000000004025cecc                LzmaDec_Init
 .text.LzmaDec_DecodeToDic
                0x000000004025cee8      0x330 lib/built-in.o
                0x000000004025cee8                LzmaDec_DecodeToDic
 .text.LzmaDec_FreeProbs
                0x000000004025d218       0x30 lib/built-in.o
                0x000000004025d218                LzmaDec_FreeProbs
 .text.LzmaDec_AllocateProbs2
                0x000000004025d248       0x80 lib/built-in.o
 .text.LzmaProps_Decode
                0x000000004025d2c8       0x90 lib/built-in.o
                0x000000004025d2c8                LzmaProps_Decode
 .text.LzmaDec_AllocateProbs
                0x000000004025d358       0x50 lib/built-in.o
                0x000000004025d358                LzmaDec_AllocateProbs
 .text.LzmaDecode
                0x000000004025d3a8       0xf0 lib/built-in.o
                0x000000004025d3a8                LzmaDecode
 .text.SzFree   0x000000004025d498        0x8 lib/built-in.o
 .text.SzAlloc  0x000000004025d4a0        0x8 lib/built-in.o
 .text.lzmaBuffToBuffDecompress
                0x000000004025d4a8      0x100 lib/built-in.o
                0x000000004025d4a8                lzmaBuffToBuffDecompress
 .text.fdt_check_header
                0x000000004025d5a8       0x74 lib/built-in.o
                0x000000004025d5a8                fdt_check_header
 .text.fdt_offset_ptr
                0x000000004025d61c       0x74 lib/built-in.o
                0x000000004025d61c                fdt_offset_ptr
 .text.fdt_next_tag
                0x000000004025d690      0x104 lib/built-in.o
                0x000000004025d690                fdt_next_tag
 .text.fdt_check_node_offset_
                0x000000004025d794       0x40 lib/built-in.o
                0x000000004025d794                fdt_check_node_offset_
 .text.fdt_check_prop_offset_
                0x000000004025d7d4       0x40 lib/built-in.o
                0x000000004025d7d4                fdt_check_prop_offset_
 .text.fdt_next_node
                0x000000004025d814       0xb0 lib/built-in.o
                0x000000004025d814                fdt_next_node
 .text.fdt_first_subnode
                0x000000004025d8c4       0x34 lib/built-in.o
                0x000000004025d8c4                fdt_first_subnode
 .text.fdt_next_subnode
                0x000000004025d8f8       0x58 lib/built-in.o
                0x000000004025d8f8                fdt_next_subnode
 .text.fdt_find_string_
                0x000000004025d950       0x70 lib/built-in.o
                0x000000004025d950                fdt_find_string_
 .text.fdt_move
                0x000000004025d9c0       0x5c lib/built-in.o
                0x000000004025d9c0                fdt_move
 .text.fdt_node_end_offset_
                0x000000004025da1c       0x48 lib/built-in.o
                0x000000004025da1c                fdt_node_end_offset_
 .text.fdt_strerror
                0x000000004025da64       0x4c lib/built-in.o
                0x000000004025da64                fdt_strerror
 .text.fdt_blocks_misordered_
                0x000000004025dab0       0x60 lib/built-in.o
 .text.fdt_splice_
                0x000000004025db10       0x98 lib/built-in.o
 .text.fdt_splice_mem_rsv_
                0x000000004025dba8       0x6c lib/built-in.o
 .text.fdt_splice_struct_
                0x000000004025dc14       0x60 lib/built-in.o
 .text.fdt_packblocks_
                0x000000004025dc74       0xb0 lib/built-in.o
 .text.fdt_add_property_
                0x000000004025dd24      0x150 lib/built-in.o
 .text.fdt_rw_check_header_
                0x000000004025de74       0x6c lib/built-in.o
 .text.fdt_add_mem_rsv
                0x000000004025dee0       0x7c lib/built-in.o
                0x000000004025dee0                fdt_add_mem_rsv
 .text.fdt_del_mem_rsv
                0x000000004025df5c       0x70 lib/built-in.o
                0x000000004025df5c                fdt_del_mem_rsv
 .text.fdt_setprop_placeholder
                0x000000004025dfcc       0xd8 lib/built-in.o
                0x000000004025dfcc                fdt_setprop_placeholder
 .text.fdt_setprop
                0x000000004025e0a4       0x54 lib/built-in.o
                0x000000004025e0a4                fdt_setprop
 .text.fdt_delprop
                0x000000004025e0f8       0x74 lib/built-in.o
                0x000000004025e0f8                fdt_delprop
 .text.fdt_add_subnode_namelen
                0x000000004025e16c      0x11c lib/built-in.o
                0x000000004025e16c                fdt_add_subnode_namelen
 .text.fdt_add_subnode
                0x000000004025e288       0x44 lib/built-in.o
                0x000000004025e288                fdt_add_subnode
 .text.fdt_del_node
                0x000000004025e2cc       0x60 lib/built-in.o
                0x000000004025e2cc                fdt_del_node
 .text.fdt_open_into
                0x000000004025e32c      0x19c lib/built-in.o
                0x000000004025e32c                fdt_open_into
 .text.fdt_address_cells
                0x000000004025e4c8       0x58 lib/built-in.o
                0x000000004025e4c8                fdt_address_cells
 .text.fdt_size_cells
                0x000000004025e520       0x54 lib/built-in.o
                0x000000004025e520                fdt_size_cells
 .text.fdt_path_next_separator
                0x000000004025e574       0x68 lib/built-in.o
 .text._nextprop.part.0
                0x000000004025e5dc       0x64 lib/built-in.o
 .text.fdt_string
                0x000000004025e640       0x14 lib/built-in.o
                0x000000004025e640                fdt_string
 .text.fdt_get_mem_rsv
                0x000000004025e654       0x68 lib/built-in.o
                0x000000004025e654                fdt_get_mem_rsv
 .text.fdt_num_mem_rsv
                0x000000004025e6bc       0x28 lib/built-in.o
                0x000000004025e6bc                fdt_num_mem_rsv
 .text.fdt_subnode_offset_namelen
                0x000000004025e6e4       0xe0 lib/built-in.o
                0x000000004025e6e4                fdt_subnode_offset_namelen
 .text.fdt_subnode_offset
                0x000000004025e7c4       0x44 lib/built-in.o
                0x000000004025e7c4                fdt_subnode_offset
 .text.fdt_get_name
                0x000000004025e808       0x84 lib/built-in.o
                0x000000004025e808                fdt_get_name
 .text.fdt_first_property_offset
                0x000000004025e88c       0x38 lib/built-in.o
                0x000000004025e88c                fdt_first_property_offset
 .text.fdt_next_property_offset
                0x000000004025e8c4       0x38 lib/built-in.o
                0x000000004025e8c4                fdt_next_property_offset
 .text.fdt_get_property_by_offset
                0x000000004025e8fc       0x64 lib/built-in.o
                0x000000004025e8fc                fdt_get_property_by_offset
 .text.fdt_get_property_namelen
                0x000000004025e960       0xd4 lib/built-in.o
                0x000000004025e960                fdt_get_property_namelen
 .text.fdt_get_property
                0x000000004025ea34       0x4c lib/built-in.o
                0x000000004025ea34                fdt_get_property
 .text.fdt_getprop_namelen
                0x000000004025ea80       0x1c lib/built-in.o
                0x000000004025ea80                fdt_getprop_namelen
 .text.fdt_getprop_by_offset
                0x000000004025ea9c       0x50 lib/built-in.o
                0x000000004025ea9c                fdt_getprop_by_offset
 .text.fdt_getprop
                0x000000004025eaec       0x4c lib/built-in.o
                0x000000004025eaec                fdt_getprop
 .text.fdt_get_phandle
                0x000000004025eb38       0x78 lib/built-in.o
                0x000000004025eb38                fdt_get_phandle
 .text.fdt_get_alias_namelen
                0x000000004025ebb0       0x64 lib/built-in.o
                0x000000004025ebb0                fdt_get_alias_namelen
 .text.fdt_path_offset_namelen
                0x000000004025ec14       0xfc lib/built-in.o
                0x000000004025ec14                fdt_path_offset_namelen
 .text.fdt_path_offset
                0x000000004025ed10       0x34 lib/built-in.o
                0x000000004025ed10                fdt_path_offset
 .text.fdt_supernode_atdepth_offset
                0x000000004025ed44       0xb8 lib/built-in.o
                0x000000004025ed44                fdt_supernode_atdepth_offset
 .text.fdt_node_depth
                0x000000004025edfc       0x30 lib/built-in.o
                0x000000004025edfc                fdt_node_depth
 .text.fdt_parent_offset
                0x000000004025ee2c       0x44 lib/built-in.o
                0x000000004025ee2c                fdt_parent_offset
 .text.fdt_node_offset_by_phandle
                0x000000004025ee70       0x84 lib/built-in.o
                0x000000004025ee70                fdt_node_offset_by_phandle
 .text.fdt_stringlist_count
                0x000000004025eef4       0x7c lib/built-in.o
                0x000000004025eef4                fdt_stringlist_count
 .text.fdt_stringlist_search
                0x000000004025ef70       0xc4 lib/built-in.o
                0x000000004025ef70                fdt_stringlist_search
 .text.fdt_stringlist_get
                0x000000004025f034       0xb4 lib/built-in.o
                0x000000004025f034                fdt_stringlist_get
 .text.get_code
                0x000000004025f0e8       0xec lib/built-in.o
 .text.read_string
                0x000000004025f1d4       0x2c lib/built-in.o
 .text.read_console
                0x000000004025f200       0x1c lib/built-in.o
 .text.console_read_unicode
                0x000000004025f21c       0x44 lib/built-in.o
                0x000000004025f21c                console_read_unicode
 .text.utf8_get
                0x000000004025f260       0x10 lib/built-in.o
                0x000000004025f260                utf8_get
 .text.utf8_put
                0x000000004025f270       0xd8 lib/built-in.o
                0x000000004025f270                utf8_put
 .text.utf8_utf16_strnlen
                0x000000004025f348       0x74 lib/built-in.o
                0x000000004025f348                utf8_utf16_strnlen
 .text.utf16_get
                0x000000004025f3bc       0x88 lib/built-in.o
                0x000000004025f3bc                utf16_get
 .text.utf16_put
                0x000000004025f444       0x80 lib/built-in.o
                0x000000004025f444                utf16_put
 .text.utf8_utf16_strncpy
                0x000000004025f4c4       0x88 lib/built-in.o
                0x000000004025f4c4                utf8_utf16_strncpy
 .text.utf16_strnlen
                0x000000004025f54c       0x48 lib/built-in.o
                0x000000004025f54c                utf16_strnlen
 .text.utf16_utf8_strnlen
                0x000000004025f594       0x80 lib/built-in.o
                0x000000004025f594                utf16_utf8_strnlen
 .text.utf16_utf8_strncpy
                0x000000004025f614       0x78 lib/built-in.o
                0x000000004025f614                utf16_utf8_strncpy
 .text.utf_to_lower
                0x000000004025f68c       0x44 lib/built-in.o
                0x000000004025f68c                utf_to_lower
 .text.utf_to_upper
                0x000000004025f6d0       0x44 lib/built-in.o
                0x000000004025f6d0                utf_to_upper
 .text.u16_strlen
                0x000000004025f714       0x1c lib/built-in.o
                0x000000004025f714                u16_strlen
 .text.utf16_to_utf8
                0x000000004025f730      0x124 lib/built-in.o
                0x000000004025f730                utf16_to_utf8
 .text.crc16_ccitt
                0x000000004025f854       0x38 lib/built-in.o
                0x000000004025f854                crc16_ccitt
 .text.fdtdec_get_int
                0x000000004025f88c       0x40 lib/built-in.o
                0x000000004025f88c                fdtdec_get_int
 .text.smbios_write_type127
                0x000000004025f8cc       0x68 lib/built-in.o
 .text.smbios_write_type32
                0x000000004025f934       0x68 lib/built-in.o
 .text.smbios_string_table_len
                0x000000004025f99c       0x44 lib/built-in.o
 .text.smbios_add_string
                0x000000004025f9e0       0x7c lib/built-in.o
 .text.smbios_write_type3
                0x000000004025fa5c       0xa0 lib/built-in.o
 .text.smbios_write_type2
                0x000000004025fafc       0xb0 lib/built-in.o
 .text.smbios_write_type0
                0x000000004025fbac      0x104 lib/built-in.o
 .text.smbios_write_type1
                0x000000004025fcb0       0xd4 lib/built-in.o
 .text.smbios_write_type4
                0x000000004025fd84       0xe8 lib/built-in.o
 .text.write_smbios_table
                0x000000004025fe6c      0x14c lib/built-in.o
                0x000000004025fe6c                write_smbios_table
 .text.default_log
                0x000000004025ffb8        0x4 lib/built-in.o
 .text.write_sparse_image
                0x000000004025ffbc      0x46c lib/built-in.o
                0x000000004025ffbc                write_sparse_image
 .text.MD5Transform
                0x0000000040260428      0xa00 lib/built-in.o
 .text.MD5Update
                0x0000000040260e28      0x104 lib/built-in.o
 .text.MD5Final
                0x0000000040260f2c       0xbc lib/built-in.o
 .text.md5_wd   0x0000000040260fe8       0x64 lib/built-in.o
                0x0000000040260fe8                md5_wd
 .text.string_to_ip
                0x000000004026104c       0xa0 lib/built-in.o
                0x000000004026104c                string_to_ip
 .text.merge    0x00000000402610ec       0x8c lib/built-in.o
 .text.list_sort
                0x0000000040261178      0x1a4 lib/built-in.o
                0x0000000040261178                list_sort
 .text.sha1_process
                0x000000004026131c     0x154c lib/built-in.o
 .text.sha1_update.part.0
                0x0000000040262868      0x10c lib/built-in.o
 .text.sha1_starts
                0x0000000040262974       0x44 lib/built-in.o
                0x0000000040262974                sha1_starts
 .text.sha1_update
                0x00000000402629b8        0xc lib/built-in.o
                0x00000000402629b8                sha1_update
 .text.sha1_finish
                0x00000000402629c4      0x154 lib/built-in.o
                0x00000000402629c4                sha1_finish
 .text.sha1_csum_wd
                0x0000000040262b18       0x48 lib/built-in.o
                0x0000000040262b18                sha1_csum_wd
 .text.sha256_process
                0x0000000040262b60     0x1fa8 lib/built-in.o
 .text.sha256_update.part.0
                0x0000000040264b08      0x100 lib/built-in.o
 .text.sha256_starts
                0x0000000040264c08       0x68 lib/built-in.o
                0x0000000040264c08                sha256_starts
 .text.sha256_update
                0x0000000040264c70        0xc lib/built-in.o
                0x0000000040264c70                sha256_update
 .text.sha256_finish
                0x0000000040264c7c      0x194 lib/built-in.o
                0x0000000040264c7c                sha256_finish
 .text.sha256_csum_wd
                0x0000000040264e10       0x48 lib/built-in.o
                0x0000000040264e10                sha256_csum_wd
 .text.zcalloc  0x0000000040264e58        0x8 lib/built-in.o
                0x0000000040264e58                zcalloc
 .text.zcfree   0x0000000040264e60        0x8 lib/built-in.o
                0x0000000040264e60                zcfree
 .text.inflate_fast
                0x0000000040264e68      0x504 lib/built-in.o
                0x0000000040264e68                inflate_fast
 .text.inflate_table
                0x000000004026536c      0x440 lib/built-in.o
                0x000000004026536c                inflate_table
 .text.inflateReset
                0x00000000402657ac       0x60 lib/built-in.o
                0x00000000402657ac                inflateReset
 .text.inflateInit2_
                0x000000004026580c      0x104 lib/built-in.o
                0x000000004026580c                inflateInit2_
 .text.inflateEnd
                0x0000000040265910       0x64 lib/built-in.o
                0x0000000040265910                inflateEnd
 .text.adler32  0x0000000040265974      0x30c lib/built-in.o
                0x0000000040265974                adler32
 .text.inflate  0x0000000040265c80     0x134c lib/built-in.o
                0x0000000040265c80                inflate
 .text.gzalloc  0x0000000040266fcc       0x10 lib/built-in.o
                0x0000000040266fcc                gzalloc
 .text.gzfree   0x0000000040266fdc        0x8 lib/built-in.o
                0x0000000040266fdc                gzfree
 .text.gzip_parse_header
                0x0000000040266fe4       0xac lib/built-in.o
                0x0000000040266fe4                gzip_parse_header
 .text.gzwrite_progress_init
                0x0000000040267090        0x8 lib/built-in.o
                0x0000000040267090                gzwrite_progress_init
 .text.gzwrite_progress
                0x0000000040267098       0x18 lib/built-in.o
                0x0000000040267098                gzwrite_progress
 .text.gzwrite_progress_finish
                0x00000000402670b0       0x28 lib/built-in.o
                0x00000000402670b0                gzwrite_progress_finish
 .text.gzwrite  0x00000000402670d8      0x3a8 lib/built-in.o
                0x00000000402670d8                gzwrite
 .text.zunzip   0x0000000040267480      0x11c lib/built-in.o
                0x0000000040267480                zunzip
 .text.gunzip   0x000000004026759c       0x68 lib/built-in.o
                0x000000004026759c                gunzip
 .text.get_prop_check_min_len
                0x0000000040267604       0x48 lib/built-in.o
 .text.fdtdec_get_is_enabled
                0x000000004026764c       0x40 lib/built-in.o
                0x000000004026764c                fdtdec_get_is_enabled
 .text.fdtdec_get_alias_seq
                0x000000004026768c      0x128 lib/built-in.o
                0x000000004026768c                fdtdec_get_alias_seq
 .text.fdtdec_get_alias_highest_id
                0x00000000402677b4       0xd4 lib/built-in.o
                0x00000000402677b4                fdtdec_get_alias_highest_id
 .text.fdtdec_prepare_fdt
                0x0000000040267888       0x44 lib/built-in.o
                0x0000000040267888                fdtdec_prepare_fdt
 .text.fdtdec_lookup_phandle
                0x00000000402678cc       0x44 lib/built-in.o
                0x00000000402678cc                fdtdec_lookup_phandle
 .text.fdtdec_get_int_array
                0x0000000040267910       0x60 lib/built-in.o
                0x0000000040267910                fdtdec_get_int_array
 .text.fdtdec_get_int_array_count
                0x0000000040267970       0x68 lib/built-in.o
                0x0000000040267970                fdtdec_get_int_array_count
 .text.fdtdec_get_bool
                0x00000000402679d8       0x20 lib/built-in.o
                0x00000000402679d8                fdtdec_get_bool
 .text.fdtdec_parse_phandle_with_args
                0x00000000402679f8      0x150 lib/built-in.o
                0x00000000402679f8                fdtdec_parse_phandle_with_args
 .text.fdtdec_get_config_int
                0x0000000040267b48       0x60 lib/built-in.o
                0x0000000040267b48                fdtdec_get_config_int
 .text.fdtdec_get_config_string
                0x0000000040267ba8       0x4c lib/built-in.o
                0x0000000040267ba8                fdtdec_get_config_string
 .text.fdtdec_get_number
                0x0000000040267bf4       0x30 lib/built-in.o
                0x0000000040267bf4                fdtdec_get_number
 .text.fdtdec_get_addr_size_fixed
                0x0000000040267c24       0xc4 lib/built-in.o
                0x0000000040267c24                fdtdec_get_addr_size_fixed
 .text.fdtdec_get_addr_size
                0x0000000040267ce8       0x20 lib/built-in.o
                0x0000000040267ce8                fdtdec_get_addr_size
 .text.fdtdec_get_addr
                0x0000000040267d08        0x8 lib/built-in.o
                0x0000000040267d08                fdtdec_get_addr
 .text.fdt_get_resource
                0x0000000040267d10      0x114 lib/built-in.o
                0x0000000040267d10                fdt_get_resource
 .text.fdt_get_named_resource
                0x0000000040267e24       0x64 lib/built-in.o
                0x0000000040267e24                fdt_get_named_resource
 .text.board_fdt_blob_setup
                0x0000000040267e88        0xc lib/built-in.o
                0x0000000040267e88                board_fdt_blob_setup
 .text.fdtdec_setup
                0x0000000040267e94       0x3c lib/built-in.o
                0x0000000040267e94                fdtdec_setup
 .text.qsort    0x0000000040267ed0       0xf8 lib/built-in.o
                0x0000000040267ed0                qsort
 .text.strcmp_compar
                0x0000000040267fc8        0xc lib/built-in.o
                0x0000000040267fc8                strcmp_compar
 .text.cmpkey   0x0000000040267fd4       0x14 lib/built-in.o
 .text._hdelete.isra.0
                0x0000000040267fe8       0x64 lib/built-in.o
 .text.drop_var_from_set.part.1
                0x000000004026804c       0x6c lib/built-in.o
 .text.match_string
                0x00000000402680b8       0xa0 lib/built-in.o
 .text.match_entry
                0x0000000040268158       0xd4 lib/built-in.o
 .text.hcreate_r
                0x000000004026822c       0x90 lib/built-in.o
                0x000000004026822c                hcreate_r
 .text.hdestroy_r
                0x00000000402682bc       0x88 lib/built-in.o
                0x00000000402682bc                hdestroy_r
 .text.hmatch_r
                0x0000000040268344       0xb8 lib/built-in.o
                0x0000000040268344                hmatch_r
 .text.hsearch_r
                0x00000000402683fc      0x438 lib/built-in.o
                0x00000000402683fc                hsearch_r
 .text.hdelete_r
                0x0000000040268834       0xf4 lib/built-in.o
                0x0000000040268834                hdelete_r
 .text.hexport_r
                0x0000000040268928      0x28c lib/built-in.o
                0x0000000040268928                hexport_r
 .text.himport_r
                0x0000000040268bb4      0x3bc lib/built-in.o
                0x0000000040268bb4                himport_r
 .text.hwalk_r  0x0000000040268f70       0x70 lib/built-in.o
                0x0000000040268f70                hwalk_r
 .text.display_options_get_banner_priv
                0x0000000040268fe0       0xb8 lib/built-in.o
                0x0000000040268fe0                display_options_get_banner_priv
 .text.display_options_get_banner
                0x0000000040269098       0x10 lib/built-in.o
                0x0000000040269098                display_options_get_banner
 .text.display_options
                0x00000000402690a8       0x34 lib/built-in.o
                0x00000000402690a8                display_options
 .text.print_size
                0x00000000402690dc       0xf0 lib/built-in.o
                0x00000000402690dc                print_size
 .text.print_buffer
                0x00000000402691cc      0x1e8 lib/built-in.o
                0x00000000402691cc                print_buffer
 .text.crc32_wd
                0x00000000402693b4        0x4 lib/built-in.o
                0x00000000402693b4                crc32_wd
 .text.hang     0x00000000402693b8       0x20 lib/built-in.o
                0x00000000402693b8                hang
 .text.kmalloc  0x00000000402693d8       0x50 lib/built-in.o
                0x00000000402693d8                kmalloc
 .text.skip_spaces
                0x0000000040269428       0x20 lib/built-in.o
                0x0000000040269428                skip_spaces
 .text.strim    0x0000000040269448       0x5c lib/built-in.o
                0x0000000040269448                strim
 .text.lmb_overlaps_region
                0x00000000402694a4       0x50 lib/built-in.o
 .text.lmb_add_region
                0x00000000402694f4      0x17c lib/built-in.o
 .text.lmb_dump_all
                0x0000000040269670        0x4 lib/built-in.o
                0x0000000040269670                lmb_dump_all
 .text.lmb_add  0x0000000040269674        0x4 lib/built-in.o
                0x0000000040269674                lmb_add
 .text.lmb_free
                0x0000000040269678       0xdc lib/built-in.o
                0x0000000040269678                lmb_free
 .text.lmb_reserve
                0x0000000040269754        0x8 lib/built-in.o
                0x0000000040269754                lmb_reserve
 .text.lmb_reserve_overlap
                0x000000004026975c       0xb4 lib/built-in.o
                0x000000004026975c                lmb_reserve_overlap
 .text.__lmb_alloc_base
                0x0000000040269810       0xd4 lib/built-in.o
                0x0000000040269810                __lmb_alloc_base
 .text.lmb_alloc_base
                0x00000000402698e4       0x4c lib/built-in.o
                0x00000000402698e4                lmb_alloc_base
 .text.lmb_alloc
                0x0000000040269930        0x8 lib/built-in.o
                0x0000000040269930                lmb_alloc
 .text.lmb_alloc_addr
                0x0000000040269938       0x68 lib/built-in.o
                0x0000000040269938                lmb_alloc_addr
 .text.lmb_get_free_size
                0x00000000402699a0       0x88 lib/built-in.o
                0x00000000402699a0                lmb_get_free_size
 .text.lmb_init_and_reserve
                0x0000000040269a28       0x78 lib/built-in.o
                0x0000000040269a28                lmb_init_and_reserve
 .text.lmb_init_and_reserve_range
                0x0000000040269aa0       0x54 lib/built-in.o
                0x0000000040269aa0                lmb_init_and_reserve_range
 .text.emit     0x0000000040269af4       0x2c lib/built-in.o
 .text.store_char_in_data
                0x0000000040269b20       0x30 lib/built-in.o
 .text.get_escape_char
                0x0000000040269b50       0x88 lib/built-in.o
 .text.relocate
                0x0000000040269bd8       0x58 lib/built-in.o
 .text.match    0x0000000040269c30      0x3f0 lib/built-in.o
 .text.loop_greedy
                0x000000004026a020       0xb4 lib/built-in.o
 .text.loop_non_greedy
                0x000000004026a0d4       0xa0 lib/built-in.o
 .text.quantifier
                0x000000004026a174       0xbc lib/built-in.o
 .text.fixup_branch
                0x000000004026a230       0x54 lib/built-in.o
 .text.compile  0x000000004026a284      0x378 lib/built-in.o
 .text.slre_compile
                0x000000004026a5fc       0xd4 lib/built-in.o
                0x000000004026a5fc                slre_compile
 .text.slre_match
                0x000000004026a6d0       0xa4 lib/built-in.o
                0x000000004026a6d0                slre_match
 .text.strncasecmp
                0x000000004026a774       0x74 lib/built-in.o
                0x000000004026a774                strncasecmp
 .text.strcasecmp
                0x000000004026a7e8        0x8 lib/built-in.o
                0x000000004026a7e8                strcasecmp
 .text.strcpy   0x000000004026a7f0       0x18 lib/built-in.o
                0x000000004026a7f0                strcpy
 .text.strncpy  0x000000004026a808       0x20 lib/built-in.o
                0x000000004026a808                strncpy
 .text.strcat   0x000000004026a828       0x30 lib/built-in.o
                0x000000004026a828                strcat
 .text.strncat  0x000000004026a858       0x40 lib/built-in.o
                0x000000004026a858                strncat
 .text.strcmp   0x000000004026a898       0x28 lib/built-in.o
                0x000000004026a898                strcmp
 .text.strncmp  0x000000004026a8c0       0x38 lib/built-in.o
                0x000000004026a8c0                strncmp
 .text.strchr   0x000000004026a8f8       0x28 lib/built-in.o
                0x000000004026a8f8                strchr
 .text.strlen   0x000000004026a920       0x1c lib/built-in.o
                0x000000004026a920                strlen
 .text.strrchr  0x000000004026a93c       0x40 lib/built-in.o
                0x000000004026a93c                strrchr
 .text.strnlen  0x000000004026a97c       0x28 lib/built-in.o
                0x000000004026a97c                strnlen
 .text.strdup   0x000000004026a9a4       0x4c lib/built-in.o
                0x000000004026a9a4                strdup
 .text.strspn   0x000000004026a9f0       0x38 lib/built-in.o
                0x000000004026a9f0                strspn
 .text.strpbrk  0x000000004026aa28       0x34 lib/built-in.o
                0x000000004026aa28                strpbrk
 .text.strtok   0x000000004026aa5c       0x78 lib/built-in.o
                0x000000004026aa5c                strtok
 .text.strsep   0x000000004026aad4       0x3c lib/built-in.o
                0x000000004026aad4                strsep
 .text.memset   0x000000004026ab10       0x6c lib/built-in.o
                0x000000004026ab10                memset
 .text.memcpy   0x000000004026ab7c       0x6c lib/built-in.o
                0x000000004026ab7c                memcpy
 .text.strlcpy  0x000000004026abe8       0x50 lib/built-in.o
                0x000000004026abe8                strlcpy
 .text.memmove  0x000000004026ac38       0x58 lib/built-in.o
                0x000000004026ac38                memmove
 .text.memcmp   0x000000004026ac90       0x30 lib/built-in.o
                0x000000004026ac90                memcmp
 .text.strstr   0x000000004026acc0       0x68 lib/built-in.o
                0x000000004026acc0                strstr
 .text.memchr   0x000000004026ad28       0x30 lib/built-in.o
                0x000000004026ad28                memchr
 .text.get_timer
                0x000000004026ad58       0x3c lib/built-in.o
                0x000000004026ad58                get_timer
 .text.timer_get_us
                0x000000004026ad94       0x38 lib/built-in.o
                0x000000004026ad94                timer_get_us
 .text.__udelay
                0x000000004026adcc       0x4c lib/built-in.o
                0x000000004026adcc                __udelay
 .text.udelay   0x000000004026ae18       0x44 lib/built-in.o
                0x000000004026ae18                udelay
 .text.hex_dump_to_buffer
                0x000000004026ae5c      0x3fc lib/built-in.o
                0x000000004026ae5c                hex_dump_to_buffer
 .text.print_hex_dump
                0x000000004026b258      0x12c lib/built-in.o
                0x000000004026b258                print_hex_dump
 .text.uuid_str_valid
                0x000000004026b384       0x84 lib/built-in.o
                0x000000004026b384                uuid_str_valid
 .text.uuid_str_to_bin
                0x000000004026b408      0x18c lib/built-in.o
                0x000000004026b408                uuid_str_to_bin
 .text.uuid_bin_to_str
                0x000000004026b594       0xd4 lib/built-in.o
                0x000000004026b594                uuid_bin_to_str
 .text.gen_rand_uuid
                0x000000004026b668       0x84 lib/built-in.o
                0x000000004026b668                gen_rand_uuid
 .text.gen_rand_uuid_str
                0x000000004026b6ec       0x38 lib/built-in.o
                0x000000004026b6ec                gen_rand_uuid_str
 .text.rand_r   0x000000004026b724       0x1c lib/built-in.o
                0x000000004026b724                rand_r
 .text.rand     0x000000004026b740        0xc lib/built-in.o
                0x000000004026b740                rand
 .text.panic_finish
                0x000000004026b74c       0x34 lib/built-in.o
 .text.panic    0x000000004026b780       0x50 lib/built-in.o
                0x000000004026b780                panic
 .text.put_dec_trunc
                0x000000004026b7d0       0xe0 lib/built-in.o
 .text.put_dec  0x000000004026b8b0       0xd0 lib/built-in.o
 .text.number   0x000000004026b980      0x2cc lib/built-in.o
 .text.string16
                0x000000004026bc4c      0x124 lib/built-in.o
 .text.string   0x000000004026bd70       0xdc lib/built-in.o
 .text.vsnprintf_internal
                0x000000004026be4c      0xa70 lib/built-in.o
 .text.vsnprintf
                0x000000004026c8bc       0x50 lib/built-in.o
                0x000000004026c8bc                vsnprintf
 .text.vscnprintf
                0x000000004026c90c       0x74 lib/built-in.o
                0x000000004026c90c                vscnprintf
 .text.snprintf
                0x000000004026c980       0x58 lib/built-in.o
                0x000000004026c980                snprintf
 .text.vsprintf
                0x000000004026c9d8       0x44 lib/built-in.o
                0x000000004026c9d8                vsprintf
 .text.sprintf  0x000000004026ca1c       0x50 lib/built-in.o
                0x000000004026ca1c                sprintf
 .text.printf   0x000000004026ca6c       0x8c lib/built-in.o
                0x000000004026ca6c                printf
 .text.vprintf  0x000000004026caf8       0x58 lib/built-in.o
                0x000000004026caf8                vprintf
 .text.simple_itoa
                0x000000004026cb50       0x44 lib/built-in.o
                0x000000004026cb50                simple_itoa
 .text.str2off  0x000000004026cb94       0x50 lib/built-in.o
                0x000000004026cb94                str2off
 .text._parse_integer_fixup_radix
                0x000000004026cbe4       0xac lib/built-in.o
 .text.simple_strtoul
                0x000000004026cc90       0x98 lib/built-in.o
                0x000000004026cc90                simple_strtoul
 .text.strict_strtoul
                0x000000004026cd28       0x88 lib/built-in.o
                0x000000004026cd28                strict_strtoul
 .text.simple_strtol
                0x000000004026cdb0       0x2c lib/built-in.o
                0x000000004026cdb0                simple_strtol
 .text.ustrtoul
                0x000000004026cddc       0x8c lib/built-in.o
                0x000000004026cddc                ustrtoul
 .text.simple_strtoull
                0x000000004026ce68       0x98 lib/built-in.o
                0x000000004026ce68                simple_strtoull
 .text.ustrtoull
                0x000000004026cf00       0x8c lib/built-in.o
                0x000000004026cf00                ustrtoull
 .text.trailing_strtoln
                0x000000004026cf8c       0x78 lib/built-in.o
                0x000000004026cf8c                trailing_strtoln
 .text.trailing_strtol
                0x000000004026d004        0x8 lib/built-in.o
                0x000000004026d004                trailing_strtol
 .text.compute_ip_checksum
                0x000000004026d00c       0x88 net/built-in.o
                0x000000004026d00c                compute_ip_checksum
 .text.ip_checksum_ok
                0x000000004026d094       0x1c net/built-in.o
                0x000000004026d094                ip_checksum_ok
 .text.arp_init
                0x000000004026d0b0       0x3c net/built-in.o
                0x000000004026d0b0                arp_init
 .text.arp_raw_request
                0x000000004026d0ec       0xec net/built-in.o
                0x000000004026d0ec                arp_raw_request
 .text.arp_request
                0x000000004026d1d8       0x84 net/built-in.o
                0x000000004026d1d8                arp_request
 .text.arp_timeout_check
                0x000000004026d25c       0x90 net/built-in.o
                0x000000004026d25c                arp_timeout_check
 .text.arp_receive
                0x000000004026d2ec      0x240 net/built-in.o
                0x000000004026d2ec                arp_receive
 .text.arp_is_waiting
                0x000000004026d52c       0x14 net/built-in.o
                0x000000004026d52c                arp_is_waiting
 .text.dhcp_extended
                0x000000004026d540      0x25c net/built-in.o
 .text.dhcp_process_options
                0x000000004026d79c      0x238 net/built-in.o
 .text.dhcp_packet_process_options
                0x000000004026d9d4       0x88 net/built-in.o
 .text.dhcp_handler
                0x000000004026da5c      0x3dc net/built-in.o
 .text.bootp_reset
                0x000000004026de38       0x3c net/built-in.o
                0x000000004026de38                bootp_reset
 .text.bootp_request
                0x000000004026de74      0x278 net/built-in.o
                0x000000004026de74                bootp_request
 .text.bootp_timeout_handler
                0x000000004026e0ec       0x68 net/built-in.o
 .text.dhcp_request
                0x000000004026e154        0x4 net/built-in.o
                0x000000004026e154                dhcp_request
 .text.eth_get_uclass_priv
                0x000000004026e158       0x30 net/built-in.o
 .text.eth_pre_remove
                0x000000004026e188       0x40 net/built-in.o
 .text.eth_post_probe
                0x000000004026e1c8      0x194 net/built-in.o
 .text.eth_write_hwaddr
                0x000000004026e35c       0xdc net/built-in.o
 .text.on_ethaddr
                0x000000004026e438       0x90 net/built-in.o
 .text.eth_post_bind
                0x000000004026e4c8       0x48 net/built-in.o
 .text.eth_set_current_to_next
                0x000000004026e510       0x48 net/built-in.o
                0x000000004026e510                eth_set_current_to_next
 .text.eth_get_dev
                0x000000004026e558       0x40 net/built-in.o
                0x000000004026e558                eth_get_dev
 .text.eth_set_dev
                0x000000004026e598       0x44 net/built-in.o
                0x000000004026e598                eth_set_dev
 .text.eth_pre_unbind
                0x000000004026e5dc       0x38 net/built-in.o
 .text.eth_get_dev_by_name
                0x000000004026e614       0xfc net/built-in.o
                0x000000004026e614                eth_get_dev_by_name
 .text.eth_get_ethaddr
                0x000000004026e710       0x24 net/built-in.o
                0x000000004026e710                eth_get_ethaddr
 .text.eth_halt_state_only
                0x000000004026e734       0x2c net/built-in.o
                0x000000004026e734                eth_halt_state_only
 .text.eth_get_dev_index
                0x000000004026e760       0x28 net/built-in.o
                0x000000004026e760                eth_get_dev_index
 .text.eth_init
                0x000000004026e788       0xf8 net/built-in.o
                0x000000004026e788                eth_init
 .text.eth_is_active
                0x000000004026e880       0x34 net/built-in.o
                0x000000004026e880                eth_is_active
 .text.eth_halt
                0x000000004026e8b4       0x50 net/built-in.o
                0x000000004026e8b4                eth_halt
 .text.eth_send
                0x000000004026e904       0x70 net/built-in.o
                0x000000004026e904                eth_send
 .text.eth_rx   0x000000004026e974       0xc8 net/built-in.o
                0x000000004026e974                eth_rx
 .text.eth_initialize
                0x000000004026ea3c      0x118 net/built-in.o
                0x000000004026ea3c                eth_initialize
 .text.eth_env_get_enetaddr_by_index
                0x000000004026eb54       0x50 net/built-in.o
                0x000000004026eb54                eth_env_get_enetaddr_by_index
 .text.eth_env_set_enetaddr_by_index
                0x000000004026eba4       0x50 net/built-in.o
                0x000000004026eba4                eth_env_set_enetaddr_by_index
 .text.eth_common_init
                0x000000004026ebf4       0x1c net/built-in.o
                0x000000004026ebf4                eth_common_init
 .text.eth_mac_skip
                0x000000004026ec10       0x44 net/built-in.o
                0x000000004026ec10                eth_mac_skip
 .text.eth_get_name
                0x000000004026ec54       0x2c net/built-in.o
                0x000000004026ec54                eth_get_name
 .text.eth_current_changed
                0x000000004026ec80       0x94 net/built-in.o
                0x000000004026ec80                eth_current_changed
 .text.eth_try_another
                0x000000004026ed14       0x80 net/built-in.o
                0x000000004026ed14                eth_try_another
 .text.eth_set_current
                0x000000004026ed94       0x8c net/built-in.o
                0x000000004026ed94                eth_set_current
 .text.net_clear_handlers
                0x000000004026ee20       0x24 net/built-in.o
 .text.start_again_timeout_handler
                0x000000004026ee44       0x10 net/built-in.o
 .text.dummy_handler
                0x000000004026ee54        0x4 net/built-in.o
 .text.on_ipaddr
                0x000000004026ee58       0x34 net/built-in.o
 .text.on_gatewayip
                0x000000004026ee8c       0x34 net/built-in.o
 .text.on_netmask
                0x000000004026eec0       0x34 net/built-in.o
 .text.on_serverip
                0x000000004026eef4       0x34 net/built-in.o
 .text.net_init_loop.part.0
                0x000000004026ef28       0x24 net/built-in.o
 .text.net_init
                0x000000004026ef4c       0x84 net/built-in.o
                0x000000004026ef4c                net_init
 .text.net_start_again
                0x000000004026efd0      0x150 net/built-in.o
                0x000000004026efd0                net_start_again
 .text.net_set_udp_handler
                0x000000004026f120       0x18 net/built-in.o
                0x000000004026f120                net_set_udp_handler
 .text.net_get_arp_handler
                0x000000004026f138        0xc net/built-in.o
                0x000000004026f138                net_get_arp_handler
 .text.net_set_timeout_handler
                0x000000004026f144       0x54 net/built-in.o
                0x000000004026f144                net_set_timeout_handler
 .text.net_get_async_tx_pkt_buf
                0x000000004026f198       0x2c net/built-in.o
                0x000000004026f198                net_get_async_tx_pkt_buf
 .text.net_process_received_packet
                0x000000004026f1c4      0x2e8 net/built-in.o
                0x000000004026f1c4                net_process_received_packet
 .text.net_eth_hdr_size
                0x000000004026f4ac       0x40 net/built-in.o
                0x000000004026f4ac                net_eth_hdr_size
 .text.net_set_ether
                0x000000004026f4ec       0xc0 net/built-in.o
                0x000000004026f4ec                net_set_ether
 .text.net_update_ether
                0x000000004026f5ac       0xa8 net/built-in.o
                0x000000004026f5ac                net_update_ether
 .text.net_set_ip_header
                0x000000004026f654       0xc0 net/built-in.o
                0x000000004026f654                net_set_ip_header
 .text.net_set_udp_header
                0x000000004026f714       0x90 net/built-in.o
                0x000000004026f714                net_set_udp_header
 .text.net_send_ip_packet
                0x000000004026f7a4      0x12c net/built-in.o
                0x000000004026f7a4                net_send_ip_packet
 .text.net_send_udp_packet
                0x000000004026f8d0       0x2c net/built-in.o
                0x000000004026f8d0                net_send_udp_packet
 .text.copy_filename
                0x000000004026f8fc       0x4c net/built-in.o
                0x000000004026f8fc                copy_filename
 .text.is_serverip_in_cmd
                0x000000004026f948       0x28 net/built-in.o
                0x000000004026f948                is_serverip_in_cmd
 .text.net_check_prereq
                0x000000004026f970       0xf8 net/built-in.o
 .text.net_auto_load
                0x000000004026fa68       0xac net/built-in.o
                0x000000004026fa68                net_auto_load
 .text.net_loop
                0x000000004026fb14      0x264 net/built-in.o
                0x000000004026fb14                net_loop
 .text.net_parse_bootfile
                0x000000004026fd78       0x98 net/built-in.o
                0x000000004026fd78                net_parse_bootfile
 .text.ip_to_string
                0x000000004026fe10       0x28 net/built-in.o
                0x000000004026fe10                ip_to_string
 .text.string_to_vlan
                0x000000004026fe38       0x58 net/built-in.o
                0x000000004026fe38                string_to_vlan
 .text.on_nvlan
                0x000000004026fe90       0x34 net/built-in.o
 .text.on_vlan  0x000000004026fec4       0x34 net/built-in.o
 .text.rpc_lookup_reply
                0x000000004026fef8       0xb4 net/built-in.o
 .text.nfs_mount_reply
                0x000000004026ffac       0x94 net/built-in.o
 .text.nfs_umountall_reply
                0x0000000040270040       0x88 net/built-in.o
 .text.nfs_lookup_reply
                0x00000000402700c8      0x100 net/built-in.o
 .text.nfs3_get_attributes_offset
                0x00000000402701c8       0x14 net/built-in.o
 .text.nfs_readlink_reply
                0x00000000402701dc      0x138 net/built-in.o
 .text.basename
                0x0000000040270314       0x48 net/built-in.o
 .text.rpc_req  0x000000004027035c      0x124 net/built-in.o
 .text.nfs_read_req
                0x0000000040270480       0xe8 net/built-in.o
 .text.nfs_read_reply.isra.0
                0x0000000040270568      0x168 net/built-in.o
 .text.nfs_mount_req
                0x00000000402706d0       0xb4 net/built-in.o
 .text.nfs_readlink_req
                0x0000000040270784       0xc0 net/built-in.o
 .text.nfs_umountall_req
                0x0000000040270844       0x6c net/built-in.o
 .text.nfs_lookup_req
                0x00000000402708b0      0x144 net/built-in.o
 .text.nfs_send
                0x00000000402709f4      0x104 net/built-in.o
 .text.nfs_handler
                0x0000000040270af8      0x23c net/built-in.o
 .text.nfs_timeout_handler
                0x0000000040270d34       0x6c net/built-in.o
 .text.nfs_start
                0x0000000040270da0      0x1d4 net/built-in.o
                0x0000000040270da0                nfs_start
 .text.ping_timeout_handler
                0x0000000040270f74       0x20 net/built-in.o
 .text.ping_start
                0x0000000040270f94      0x118 net/built-in.o
                0x0000000040270f94                ping_start
 .text.ping_receive
                0x00000000402710ac      0x128 net/built-in.o
                0x00000000402710ac                ping_receive
 .text.tftp_init_load_addr
                0x00000000402711d4       0x5c net/built-in.o
 .text.tftp_send
                0x0000000040271230      0x1ac net/built-in.o
 .text.tftp_handler
                0x00000000402713dc      0x3c0 net/built-in.o
 .text.tftp_timeout_handler
                0x000000004027179c       0x84 net/built-in.o
 .text.tftp_start
                0x0000000040271820      0x334 net/built-in.o
                0x0000000040271820                tftp_start
                0x0000000040271b58                . = ALIGN (0x8)

.rodata         0x0000000040271b58    0x16bb3
 *(SORT_BY_ALIGNMENT(SORT_BY_NAME(.rodata*)))
 .rodata        0x0000000040271b58       0x40 arch/arm/mach-imx/built-in.o
 .rodata.CSWTCH.11
                0x0000000040271b98       0x40 disk/built-in.o
 .rodata.CSWTCH.136
                0x0000000040271bd8       0xe8 common/built-in.o
 .rodata.CSWTCH.14
                0x0000000040271cc0       0x40 common/built-in.o
 .rodata.CSWTCH.31
                0x0000000040271d00       0x18 drivers/usb/host/built-in.o
 .rodata.CSWTCH.34
                0x0000000040271d18       0x28 cmd/built-in.o
 .rodata.boot_os
                0x0000000040271d40       0xc0 common/built-in.o
 .rodata.bootm_args.6580
                0x0000000040271e00       0x18 drivers/built-in.o
 .rodata.commands
                0x0000000040271e18       0xd0 drivers/built-in.o
 .rodata.ctr_data
                0x0000000040271ee8       0x20 drivers/usb/host/built-in.o
 .rodata.desc_and_len_tbl
                0x0000000040271f08       0x60 cmd/built-in.o
 .rodata.driver_ops
                0x0000000040271f68       0x18 lib/built-in.o
 .rodata.dwc3_gadget_ep0_ops
                0x0000000040271f80       0x50 drivers/usb/dwc3/built-in.o
 .rodata.dwc3_gadget_ep_ops
                0x0000000040271fd0       0x50 drivers/usb/dwc3/built-in.o
 .rodata.dwc3_gadget_ops
                0x0000000040272020       0x58 drivers/usb/dwc3/built-in.o
 .rodata.efi_blk_ops
                0x0000000040272078       0x20 lib/built-in.o
 .rodata.efi_block_io_guid
                0x0000000040272098       0x10 lib/built-in.o
                0x0000000040272098                efi_block_io_guid
 .rodata.efi_device_path_to_text
                0x00000000402720a8       0x10 lib/built-in.o
                0x00000000402720a8                efi_device_path_to_text
 .rodata.efi_device_path_utilities
                0x00000000402720b8       0x40 lib/built-in.o
                0x00000000402720b8                efi_device_path_utilities
 .rodata.efi_file_handle_protocol
                0x00000000402720f8       0x58 lib/built-in.o
 .rodata.efi_file_info_guid
                0x0000000040272150       0x10 lib/built-in.o
                0x0000000040272150                efi_file_info_guid
 .rodata.efi_file_system_info_guid
                0x0000000040272160       0x10 lib/built-in.o
                0x0000000040272160                efi_file_system_info_guid
 .rodata.efi_global_variable_guid
                0x0000000040272170       0x10 lib/built-in.o
                0x0000000040272170                efi_global_variable_guid
 .rodata.efi_guid_device_path
                0x0000000040272180       0x10 lib/built-in.o
                0x0000000040272180                efi_guid_device_path
 .rodata.efi_guid_device_path_to_text_protocol
                0x0000000040272190       0x10 lib/built-in.o
                0x0000000040272190                efi_guid_device_path_to_text_protocol
 .rodata.efi_guid_device_path_utilities_protocol
                0x00000000402721a0       0x10 lib/built-in.o
                0x00000000402721a0                efi_guid_device_path_utilities_protocol
 .rodata.efi_guid_driver_binding_protocol
                0x00000000402721b0       0x10 lib/built-in.o
                0x00000000402721b0                efi_guid_driver_binding_protocol
 .rodata.efi_guid_event_group_exit_boot_services
                0x00000000402721c0       0x10 lib/built-in.o
                0x00000000402721c0                efi_guid_event_group_exit_boot_services
 .rodata.efi_guid_event_group_reset_system
                0x00000000402721d0       0x10 lib/built-in.o
                0x00000000402721d0                efi_guid_event_group_reset_system
 .rodata.efi_guid_fdt
                0x00000000402721e0       0x10 lib/built-in.o
                0x00000000402721e0                efi_guid_fdt
 .rodata.efi_guid_loaded_image
                0x00000000402721f0       0x10 lib/built-in.o
                0x00000000402721f0                efi_guid_loaded_image
 .rodata.efi_guid_text_input_ex_protocol
                0x0000000040272200       0x10 lib/built-in.o
                0x0000000040272200                efi_guid_text_input_ex_protocol
 .rodata.efi_guid_text_input_protocol
                0x0000000040272210       0x10 lib/built-in.o
                0x0000000040272210                efi_guid_text_input_protocol
 .rodata.efi_guid_text_output_protocol
                0x0000000040272220       0x10 lib/built-in.o
                0x0000000040272220                efi_guid_text_output_protocol
 .rodata.efi_guid_unicode_collation_protocol
                0x0000000040272230       0x10 lib/built-in.o
                0x0000000040272230                efi_guid_unicode_collation_protocol
 .rodata.efi_net_guid
                0x0000000040272240       0x10 lib/built-in.o
 .rodata.efi_pxe_guid
                0x0000000040272250       0x10 lib/built-in.o
 .rodata.efi_simple_file_system_protocol_guid
                0x0000000040272260       0x10 lib/built-in.o
                0x0000000040272260                efi_simple_file_system_protocol_guid
 .rodata.efi_unicode_collation_protocol
                0x0000000040272270       0x38 lib/built-in.o
                0x0000000040272270                efi_unicode_collation_protocol
 .rodata.efi_var_attrs
                0x00000000402722a8       0x50 cmd/built-in.o
 .rodata.fdt_errtable
                0x00000000402722f8       0x90 lib/built-in.o
 .rodata.fdt_member_table
                0x0000000040272388       0x50 cmd/built-in.o
 .rodata.fec1_rst_pads
                0x00000000402723d8        0x8 board/freescale/imx8mq_evk/built-in.o
 .rodata.fecmxc_ids
                0x00000000402723e0       0x80 drivers/net/built-in.o
 .rodata.fecmxc_ops
                0x0000000040272460       0x40 drivers/net/built-in.o
 .rodata.fixed_regulator_ids
                0x00000000402724a0       0x20 drivers/power/regulator/built-in.o
 .rodata.fixed_regulator_ops
                0x00000000402724c0       0x40 drivers/power/regulator/built-in.o
 .rodata.fsl_esdhc_ids
                0x0000000040272500       0xc0 drivers/built-in.o
 .rodata.fsl_esdhc_ops
                0x00000000402725c0       0x38 drivers/built-in.o
 .rodata.fsl_qspi_ids
                0x00000000402725f8       0x60 drivers/spi/built-in.o
 .rodata.fsl_qspi_ops
                0x0000000040272658       0x40 drivers/spi/built-in.o
 .rodata.generic_simple_bus_ids
                0x0000000040272698       0x30 drivers/built-in.o
 .rodata.gpio_function
                0x00000000402726c8       0x28 drivers/gpio/built-in.o
 .rodata.gpio_mxc_ops
                0x00000000402726f0       0x50 drivers/gpio/built-in.o
 .rodata.gpio_regulator_ids
                0x0000000040272740       0x20 drivers/power/regulator/built-in.o
 .rodata.gpio_regulator_ops
                0x0000000040272760       0x40 drivers/power/regulator/built-in.o
 .rodata.hub_id_table
                0x00000000402727a0       0x40 common/built-in.o
 .rodata.if_typename_str
                0x00000000402727e0       0x68 drivers/built-in.o
 .rodata.imx8m_pinctrl_match
                0x0000000040272848       0x30 drivers/built-in.o
 .rodata.imx_pinctrl_ops
                0x0000000040272878       0x90 drivers/built-in.o
                0x0000000040272878                imx_pinctrl_ops
 .rodata.init_sequence_f
                0x0000000040272908      0x170 common/built-in.o
 .rodata.lte_en_pads
                0x0000000040272a78        0x8 board/freescale/imx8mq_evk/built-in.o
 .rodata.m2_en_pads
                0x0000000040272a80        0x8 board/freescale/imx8mq_evk/built-in.o
 .rodata.mass_storage_id_table
                0x0000000040272a88       0x40 common/built-in.o
 .rodata.mmc_blk_ops
                0x0000000040272ac8       0x20 drivers/built-in.o
 .rodata.mxc_gpio_ids
                0x0000000040272ae8       0x20 drivers/gpio/built-in.o
 .rodata.mxc_i2c_ids
                0x0000000040272b08       0x30 drivers/i2c/built-in.o
 .rodata.mxc_i2c_ops
                0x0000000040272b38       0x30 drivers/i2c/built-in.o
 .rodata.names.8633
                0x0000000040272b68       0x70 drivers/built-in.o
 .rodata.nodes_path.10091
                0x0000000040272bd8       0x20 arch/arm/mach-imx/built-in.o
 .rodata.nxp_tmu_ids
                0x0000000040272bf8       0x30 drivers/built-in.o
 .rodata.nxp_tmu_ops
                0x0000000040272c28        0x8 drivers/built-in.o
 .rodata.op_adv
                0x0000000040272c30      0x180 cmd/built-in.o
                0x0000000040272c30                op_adv
 .rodata.op_table
                0x0000000040272db0       0xd0 cmd/built-in.o
 .rodata.partition_basic_data_guid
                0x0000000040272e80       0x10 disk/built-in.o
 .rodata.phy_interface_strings
                0x0000000040272e90       0xb0 drivers/net/phy/built-in.o
 .rodata.reg_0_5_desc_tbl
                0x0000000040272f40       0x60 cmd/built-in.o
 .rodata.reg_0_desc_tbl
                0x0000000040272fa0       0xa0 cmd/built-in.o
 .rodata.reg_1_desc_tbl
                0x0000000040273040      0x100 cmd/built-in.o
 .rodata.reg_2_desc_tbl
                0x0000000040273140       0x10 cmd/built-in.o
 .rodata.reg_3_desc_tbl
                0x0000000040273150       0x30 cmd/built-in.o
 .rodata.reg_4_desc_tbl
                0x0000000040273180       0xc0 cmd/built-in.o
 .rodata.reg_5_desc_tbl
                0x0000000040273240       0xc0 cmd/built-in.o
 .rodata.root_info
                0x0000000040273300       0x10 drivers/built-in.o
 .rodata.smbios_guid
                0x0000000040273310       0x10 lib/built-in.o
 .rodata.smbios_write_funcs
                0x0000000040273320       0x38 lib/built-in.o
 .rodata.spi_flash_std_ids
                0x0000000040273358       0x30 drivers/mtd/spi/built-in.o
 .rodata.spi_flash_std_ops
                0x0000000040273388       0x20 drivers/mtd/spi/built-in.o
 .rodata.spi_nor_ids
                0x00000000402733a8      0x6c0 drivers/mtd/spi/built-in.o
                0x00000000402733a8                spi_nor_ids
 .rodata.system_guid
                0x0000000040273a68       0x10 disk/built-in.o
 .rodata.uart_pads
                0x0000000040273a78       0x10 board/freescale/imx8mq_evk/built-in.o
 .rodata.uimage_arch
                0x0000000040273a88      0x288 common/built-in.o
 .rodata.uimage_comp
                0x0000000040273d10       0xa8 common/built-in.o
 .rodata.uimage_os
                0x0000000040273db8      0x120 common/built-in.o
 .rodata.uimage_type
                0x0000000040273ed8      0x3a8 common/built-in.o
 .rodata.usb_dr_modes
                0x0000000040274280       0x20 drivers/usb/common/built-in.o
 .rodata.usb_en_pads
                0x00000000402742a0        0x8 board/freescale/imx8mq_evk/built-in.o
 .rodata.usb_hub_ids
                0x00000000402742a8       0x20 common/built-in.o
 .rodata.usb_mass_storage_ids
                0x00000000402742c8       0x20 common/built-in.o
 .rodata.usb_storage_ops
                0x00000000402742e8       0x20 common/built-in.o
 .rodata.wdog_pads
                0x0000000040274308        0x8 board/freescale/imx8mq_evk/built-in.o
 .rodata.xhci_dwc3_ids
                0x0000000040274310       0x20 drivers/usb/host/built-in.o
 .rodata.xhci_usb_ids
                0x0000000040274330       0x20 drivers/usb/host/built-in.o
 .rodata.CSWTCH.22
                0x0000000040274350        0xc arch/arm/mach-imx/built-in.o
 .rodata.CSWTCH.29
                0x000000004027435c       0x14 drivers/usb/host/built-in.o
 .rodata.binary_test
                0x0000000040274370        0xe cmd/built-in.o
 *fill*         0x000000004027437e        0x2 
 .rodata.blk_common_cmd
                0x0000000040274380        0x4 cmd/built-in.o
 .rodata.cli_readline_into_buffer
                0x0000000040274384       0x40 common/built-in.o
 .rodata.color  0x00000000402743c4       0x40 lib/built-in.o
 .rodata.composite_setup
                0x0000000040274404       0x38 drivers/usb/gadget/built-in.o
 .rodata.decode_sscg_pll
                0x000000004027443c       0x17 arch/arm/mach-imx/built-in.o
 *fill*         0x0000000040274453        0x1 
 .rodata.dev_print
                0x0000000040274454       0x18 disk/built-in.o
 .rodata.do_fdt
                0x000000004027446c       0x12 cmd/built-in.o
 *fill*         0x000000004027447e        0x2 
 .rodata.do_itest
                0x0000000040274480        0x7 cmd/built-in.o
 *fill*         0x0000000040274487        0x1 
 .rodata.do_test
                0x0000000040274488        0xd cmd/built-in.o
 *fill*         0x0000000040274495        0x3 
 .rodata.dwc3_gadget_uboot_handle_interrupt
                0x0000000040274498       0x19 drivers/usb/dwc3/built-in.o
 *fill*         0x00000000402744b1        0x3 
 .rodata.efi_cin_check
                0x00000000402744b4       0x30 lib/built-in.o
 .rodata.efi_load_pe
                0x00000000402744e4        0xb lib/built-in.o
 *fill*         0x00000000402744ef        0x1 
 .rodata.efi_set_code_and_data_type
                0x00000000402744f0        0x4 lib/built-in.o
 .rodata.env_flags_validate
                0x00000000402744f4        0x6 env/built-in.o
 *fill*         0x00000000402744fa        0x2 
 .rodata.env_flags_varaccess_mask
                0x00000000402744fc       0x10 env/built-in.o
 .rodata.ext_csd_bus_width
                0x000000004027450c       0x3c drivers/built-in.o
 .rodata.fbase  0x0000000040274548       0x10 drivers/built-in.o
 .rodata.fdt_next_tag
                0x0000000040274558        0x9 lib/built-in.o
 *fill*         0x0000000040274561        0x3 
 .rodata.fecmxc_probe
                0x0000000040274564        0xb drivers/net/built-in.o
 *fill*         0x000000004027456f        0x1 
 .rodata.file_fat_detectfs
                0x0000000040274570        0x8 fs/built-in.o
 .rodata.freqs.8638
                0x0000000040274578       0x38 drivers/built-in.o
 .rodata.fsg_main_thread
                0x00000000402745b0        0x6 drivers/usb/gadget/built-in.o
 *fill*         0x00000000402745b6        0x2 
 .rodata.fsl_esdhc_set_ios
                0x00000000402745b8       0x16 drivers/built-in.o
 *fill*         0x00000000402745ce        0x2 
 .rodata.get_boot_device
                0x00000000402745d0        0xf arch/arm/mach-imx/built-in.o
 *fill*         0x00000000402745df        0x1 
 .rodata.get_clk_root_target
                0x00000000402745e0        0x7 arch/arm/mach-imx/built-in.o
 *fill*         0x00000000402745e7        0x1 
 .rodata.get_cpu_speed_grade_hz
                0x00000000402745e8        0x5 arch/arm/mach-imx/built-in.o
 *fill*         0x00000000402745ed        0x3 
 .rodata.hwcaps_pp2cmd.9407
                0x00000000402745f0       0x38 drivers/mtd/spi/built-in.o
 .rodata.hwcaps_read2cmd.9403
                0x0000000040274628       0x78 drivers/mtd/spi/built-in.o
 .rodata.if_type_uclass_id
                0x00000000402746a0       0x34 drivers/built-in.o
 .rodata.imx6sx_data
                0x00000000402746d4       0x14 drivers/spi/built-in.o
 .rodata.imx6ul_data
                0x00000000402746e8       0x14 drivers/spi/built-in.o
 .rodata.imx7d_data
                0x00000000402746fc       0x14 drivers/spi/built-in.o
 .rodata.imx7ulp_data
                0x0000000040274710       0x14 drivers/spi/built-in.o
 .rodata.inflate
                0x0000000040274724       0x3a lib/built-in.o
 *fill*         0x000000004027475e        0x2 
 .rodata.load_serial
                0x0000000040274760        0x9 cmd/built-in.o
 *fill*         0x0000000040274769        0x3 
 .rodata.match  0x000000004027476c       0x22 lib/built-in.o
 *fill*         0x000000004027478e        0x2 
 .rodata.mmc_init
                0x0000000040274790        0x4 drivers/built-in.o
 .rodata.mmc_modes_by_pref
                0x0000000040274794       0x48 drivers/built-in.o
 .rodata.mmc_set_capacity
                0x00000000402747dc        0x8 drivers/built-in.o
 .rodata.mmc_set_card_speed
                0x00000000402747e4        0xd drivers/built-in.o
 *fill*         0x00000000402747f1        0x3 
 .rodata.mmc_versions.9057
                0x00000000402747f4       0x24 drivers/built-in.o
 .rodata.mxc_get_clock
                0x0000000040274818        0x9 arch/arm/mach-imx/built-in.o
 *fill*         0x0000000040274821        0x3 
 .rodata.net_check_prereq
                0x0000000040274824        0xf net/built-in.o
 *fill*         0x0000000040274833        0x1 
 .rodata.net_loop
                0x0000000040274834        0x8 net/built-in.o
 .rodata.nfs_handler
                0x000000004027483c        0x7 net/built-in.o
 *fill*         0x0000000040274843        0x1 
 .rodata.nfs_send
                0x0000000040274844        0x7 net/built-in.o
 *fill*         0x000000004027484b        0x1 
 .rodata.part_print
                0x000000004027484c        0xc disk/built-in.o
 .rodata.prepare_ring
                0x0000000040274858        0x5 drivers/usb/host/built-in.o
 *fill*         0x000000004027485d        0x3 
 .rodata.record_transfer_result
                0x0000000040274860        0xd drivers/usb/host/built-in.o
 *fill*         0x000000004027486d        0x3 
 .rodata.rx_handler_command
                0x0000000040274870        0x6 drivers/usb/gadget/built-in.o
 *fill*         0x0000000040274876        0x2 
 .rodata.sd_au_size.8911
                0x0000000040274878       0x40 drivers/built-in.o
 .rodata.sd_modes_by_pref
                0x00000000402748b8       0x54 drivers/built-in.o
 .rodata.sd_select_mode_and_width
                0x000000004027490c        0xa drivers/built-in.o
 *fill*         0x0000000040274916        0x2 
 .rodata.sleep_thread.isra.17
                0x0000000040274918        0x8 drivers/usb/gadget/built-in.o
 .rodata.srec_decode
                0x0000000040274920        0xa common/built-in.o
 *fill*         0x000000004027492a        0x2 
 .rodata.tftp_send
                0x000000004027492c        0x7 net/built-in.o
 *fill*         0x0000000040274933        0x1 
 .rodata.usb_display_class_sub
                0x0000000040274934        0x6 cmd/built-in.o
 *fill*         0x000000004027493a        0x2 
 .rodata.vybrid_data
                0x000000004027493c       0x14 drivers/spi/built-in.o
 .rodata.write_sparse_image
                0x0000000040274950        0x8 lib/built-in.o
 .rodata.xhci_setup_addressable_virt_dev
                0x0000000040274958        0xd drivers/usb/host/built-in.o
 *fill*         0x0000000040274965        0x3 
 .rodata.xhci_submit_control_msg
                0x0000000040274968       0x16 drivers/usb/host/built-in.o
 .rodata.codepage
                0x000000004027497e      0x100 lib/built-in.o
 .rodata.crc16_tab
                0x0000000040274a7e      0x200 lib/built-in.o
 .rodata.crc16_table
                0x0000000040274c7e      0x200 fs/built-in.o
 .rodata.dbase.6902
                0x0000000040274e7e       0x40 lib/built-in.o
 .rodata.dext.6903
                0x0000000040274ebe       0x40 lib/built-in.o
 .rodata.distfix
                0x0000000040274efe       0x80 lib/built-in.o
 .rodata.efi_bootmgr_load.str2.2
                0x0000000040274f7e       0x48 lib/built-in.o
 .rodata.i2c_clk_div
                0x0000000040274fc6       0xc8 drivers/i2c/built-in.o
 .rodata.lbase.6900
                0x000000004027508e       0x3e lib/built-in.o
 .rodata.lenfix
                0x00000000402750cc      0x800 lib/built-in.o
 .rodata.lext.6901
                0x00000000402758cc       0x3e lib/built-in.o
 .rodata.order.6996
                0x000000004027590a       0x26 lib/built-in.o
 .rodata.string16.str2.2
                0x0000000040275930        0xe lib/built-in.o
 .rodata        0x000000004027593e       0x14 drivers/built-in.o
 .rodata        0x0000000040275952       0x3a drivers/usb/host/built-in.o
 .rodata        0x000000004027598c       0x20 lib/built-in.o
 .rodata        0x00000000402759ac        0x7 net/built-in.o
 .rodata.CSWTCH.32
                0x00000000402759b3        0x3 drivers/usb/host/built-in.o
 .rodata.END    0x00000000402759b6        0x4 lib/built-in.o
 .rodata.ROOT   0x00000000402759ba       0x14 lib/built-in.o
 .rodata.__FUNCTION__.7492
                0x00000000402759ce       0x17 common/built-in.o
 .rodata.__FUNCTION__.7656
                0x00000000402759e5       0x17 common/built-in.o
 .rodata.__dwc3_ep0_do_control_data.str1.1
                0x00000000402759fc       0x17 drivers/usb/dwc3/built-in.o
                                         0x2f (size before relaxing)
 .rodata.__dwc3_gadget_ep_set_halt.str1.1
                0x0000000040275a13       0x53 drivers/usb/dwc3/built-in.o
 .rodata.__dwc3_gadget_kick_transfer.str1.1
                0x0000000040275a66       0x32 drivers/usb/dwc3/built-in.o
 .rodata.__func__.10399
                0x0000000040275a98        0xc drivers/net/built-in.o
 .rodata.__func__.10448
                0x0000000040275aa4       0x10 drivers/net/built-in.o
 .rodata.__func__.10992
                0x0000000040275ab4       0x11 drivers/usb/gadget/built-in.o
 .rodata.__func__.11148
                0x0000000040275ac5       0x11 drivers/usb/gadget/built-in.o
 .rodata.__func__.11292
                0x0000000040275ad6        0xf drivers/usb/gadget/built-in.o
 .rodata.__func__.6571
                0x0000000040275ae5        0xb fs/built-in.o
 .rodata.__func__.6728
                0x0000000040275af0       0x13 lib/built-in.o
 .rodata.__func__.6801
                0x0000000040275b03        0x8 lib/built-in.o
 .rodata.__func__.7025
                0x0000000040275b0b       0x13 fs/built-in.o
 .rodata.__func__.7034
                0x0000000040275b1e       0x14 fs/built-in.o
 .rodata.__func__.7080
                0x0000000040275b32        0x7 cmd/built-in.o
 .rodata.__func__.7317
                0x0000000040275b39        0xa drivers/built-in.o
 .rodata.__func__.7331
                0x0000000040275b43        0xe disk/built-in.o
 .rodata.__func__.7341
                0x0000000040275b51        0xf disk/built-in.o
 .rodata.__func__.7346
                0x0000000040275b60        0xb drivers/built-in.o
 .rodata.__func__.7353
                0x0000000040275b6b       0x12 disk/built-in.o
 .rodata.__func__.7364
                0x0000000040275b7d       0x13 disk/built-in.o
 .rodata.__func__.7364
                0x0000000040275b90        0xa drivers/built-in.o
 .rodata.__func__.7368
                0x0000000040275b9a       0x18 common/built-in.o
 .rodata.__func__.7376
                0x0000000040275bb2        0xe drivers/built-in.o
 .rodata.__func__.7426
                0x0000000040275bc0        0xc disk/built-in.o
 .rodata.__func__.7433
                0x0000000040275bcc       0x1c fs/built-in.o
 .rodata.__func__.7444
                0x0000000040275be8       0x13 disk/built-in.o
 .rodata.__func__.7487
                0x0000000040275bfb       0x1c disk/built-in.o
 .rodata.__func__.7504
                0x0000000040275c17        0xd disk/built-in.o
 .rodata.__func__.7516
                0x0000000040275c24       0x17 disk/built-in.o
 .rodata.__func__.7521
                0x0000000040275c3b        0xd disk/built-in.o
 .rodata.__func__.7873
                0x0000000040275c48        0xe common/built-in.o
 .rodata.__func__.8041
                0x0000000040275c56        0xe drivers/built-in.o
 .rodata.__func__.8222
                0x0000000040275c64       0x1b lib/built-in.o
 .rodata.__func__.8241
                0x0000000040275c7f        0xc lib/built-in.o
 .rodata.__func__.8590
                0x0000000040275c8b       0x13 drivers/usb/host/built-in.o
 .rodata.__func__.8625
                0x0000000040275c9e       0x14 drivers/usb/host/built-in.o
 .rodata.__func__.8636
                0x0000000040275cb2        0x9 drivers/usb/host/built-in.o
 .rodata.__func__.8646
                0x0000000040275cbb       0x17 drivers/usb/host/built-in.o
 .rodata.__func__.8690
                0x0000000040275cd2        0xd drivers/usb/host/built-in.o
 .rodata.__func__.8714
                0x0000000040275cdf        0xd drivers/usb/host/built-in.o
 .rodata.__func__.8738
                0x0000000040275cec        0xd drivers/built-in.o
 .rodata.__func__.8744
                0x0000000040275cf9       0x11 drivers/built-in.o
 .rodata.__func__.8748
                0x0000000040275d0a       0x18 drivers/built-in.o
 .rodata.__func__.8752
                0x0000000040275d22       0x18 drivers/built-in.o
 .rodata.__func__.8756
                0x0000000040275d3a        0xd drivers/built-in.o
 .rodata.__func__.8760
                0x0000000040275d47       0x14 drivers/built-in.o
 .rodata.__func__.8764
                0x0000000040275d5b       0x14 drivers/built-in.o
 .rodata.__func__.8803
                0x0000000040275d6f        0xd drivers/usb/gadget/built-in.o
 .rodata.__func__.9128
                0x0000000040275d7c       0x13 drivers/usb/dwc3/built-in.o
 .rodata.__func__.9172
                0x0000000040275d8f       0x1c drivers/usb/dwc3/built-in.o
 .rodata.__func__.9184
                0x0000000040275dab       0x15 common/built-in.o
 .rodata.__func__.9197
                0x0000000040275dc0       0x17 drivers/usb/dwc3/built-in.o
 .rodata.__func__.9226
                0x0000000040275dd7       0x16 drivers/usb/dwc3/built-in.o
 .rodata.__func__.9286
                0x0000000040275ded       0x17 drivers/usb/dwc3/built-in.o
 .rodata.__func__.9289
                0x0000000040275e04       0x11 drivers/usb/host/built-in.o
 .rodata.__func__.9294
                0x0000000040275e15       0x11 drivers/usb/host/built-in.o
 .rodata.__func__.9303
                0x0000000040275e26        0xf drivers/usb/host/built-in.o
 .rodata.__func__.9320
                0x0000000040275e35       0x1b drivers/usb/dwc3/built-in.o
 .rodata.__func__.9332
                0x0000000040275e50       0x1d drivers/usb/dwc3/built-in.o
 .rodata.__func__.9337
                0x0000000040275e6d       0x12 drivers/i2c/built-in.o
 .rodata.__func__.9338
                0x0000000040275e7f        0xc drivers/usb/host/built-in.o
 .rodata.__func__.9349
                0x0000000040275e8b       0x1a drivers/usb/dwc3/built-in.o
 .rodata.__func__.9353
                0x0000000040275ea5       0x13 drivers/usb/host/built-in.o
 .rodata.__func__.9360
                0x0000000040275eb8       0x16 drivers/built-in.o
 .rodata.__func__.9360
                0x0000000040275ece       0x10 drivers/usb/host/built-in.o
 .rodata.__func__.9363
                0x0000000040275ede       0x16 drivers/usb/dwc3/built-in.o
 .rodata.__func__.9368
                0x0000000040275ef4       0x1b drivers/usb/host/built-in.o
 .rodata.__func__.9371
                0x0000000040275f0f        0xd drivers/i2c/built-in.o
 .rodata.__func__.9380
                0x0000000040275f1c       0x16 drivers/usb/host/built-in.o
 .rodata.__func__.9391
                0x0000000040275f32       0x19 drivers/usb/host/built-in.o
 .rodata.__func__.9394
                0x0000000040275f4b       0x19 drivers/usb/host/built-in.o
 .rodata.__func__.9412
                0x0000000040275f64       0x17 drivers/usb/dwc3/built-in.o
 .rodata.__func__.9421
                0x0000000040275f7b        0xd drivers/i2c/built-in.o
 .rodata.__func__.9423
                0x0000000040275f88       0x1b drivers/usb/host/built-in.o
 .rodata.__func__.9432
                0x0000000040275fa3       0x12 drivers/i2c/built-in.o
 .rodata.__func__.9443
                0x0000000040275fb5       0x14 drivers/usb/host/built-in.o
 .rodata.__func__.9457
                0x0000000040275fc9       0x13 drivers/usb/host/built-in.o
 .rodata.__func__.9467
                0x0000000040275fdc       0x20 drivers/usb/host/built-in.o
 .rodata.__func__.9470
                0x0000000040275ffc       0x1a drivers/usb/dwc3/built-in.o
 .rodata.__func__.9493
                0x0000000040276016       0x18 drivers/usb/dwc3/built-in.o
 .rodata.__func__.9651
                0x000000004027602e       0x17 drivers/usb/host/built-in.o
 .rodata.__func__.9662
                0x0000000040276045        0xc lib/built-in.o
 .rodata.__func__.9850
                0x0000000040276051       0x15 lib/built-in.o
 .rodata._ctype
                0x0000000040276066      0x100 lib/built-in.o
                0x0000000040276066                _ctype
 .rodata._do_env_set.str1.1
                0x0000000040276166       0x7c cmd/built-in.o
 .rodata._do_help.str1.1
                0x00000000402761e2       0x5f common/built-in.o
 .rodata._fastboot_parts_load_from_ptable.str1.1
                0x0000000040276241       0xaa drivers/built-in.o
                                         0xec (size before relaxing)
 .rodata.android_image_check_header.str1.1
                0x00000000402762eb        0x9 common/built-in.o
 .rodata.android_image_get_kernel.str1.1
                0x00000000402762f4      0x21d common/built-in.o
                                        0x24d (size before relaxing)
 .rodata.android_image_get_ramdisk.str1.1
                0x0000000040276511       0x27 common/built-in.o
 .rodata.android_image_get_second.str1.1
                0x0000000040276538       0x19 common/built-in.o
 .rodata.android_print_contents.str1.1
                0x0000000040276551      0x126 common/built-in.o
                                        0x12a (size before relaxing)
 .rodata.announce_dram_init.str1.1
                0x0000000040276677        0x8 common/built-in.o
 .rodata.arch_misc_init.str1.1
                0x000000004027667f       0x47 arch/arm/mach-imx/built-in.o
 .rodata.arp_receive.str1.1
                0x00000000402766c6       0x14 net/built-in.o
 .rodata.arp_request.str1.1
                0x00000000402766da       0x2a net/built-in.o
 .rodata.arp_timeout_check.str1.1
                0x0000000040276704       0x2b net/built-in.o
 .rodata.autoboot_command.str1.1
                0x000000004027672f       0x31 common/built-in.o
 .rodata.b_addqchr.str1.1
                0x0000000040276760        0x5 common/built-in.o
 .rodata.binary_test.str1.1
                0x0000000040276765       0x17 cmd/built-in.o
 .rodata.blk_common_cmd.str1.1
                0x000000004027677c       0xed cmd/built-in.o
                                        0x101 (size before relaxing)
 .rodata.blk_create_devicef.str1.1
                0x0000000040276869        0x6 drivers/built-in.o
 .rodata.blk_get_device_by_str.str1.1
                0x000000004027686f       0x52 disk/built-in.o
 .rodata.blk_get_device_part_str.str1.1
                0x00000000402768c1       0xe1 disk/built-in.o
                                        0x109 (size before relaxing)
 .rodata.blk_list_devices.str1.1
                0x00000000402769a2        0x6 drivers/built-in.o
                                          0xc (size before relaxing)
 .rodata.blk_print_device_num.str1.1
                0x00000000402769a2       0x11 drivers/built-in.o
 .rodata.blk_show_device.str1.1
                0x00000000402769b3       0x1d drivers/built-in.o
 .rodata.blkc_configure.str1.1
                0x00000000402769d0       0x30 cmd/built-in.o
 .rodata.blkc_show.str1.1
                0x0000000040276a00       0x4c cmd/built-in.o
 .rodata.board_fastboot_setup.str1.1
                0x0000000040276a4c       0xba drivers/built-in.o
                                         0xdc (size before relaxing)
 .rodata.board_init.str1.1
                0x0000000040276b06       0x1d board/freescale/imx8mq_evk/built-in.o
 .rodata.board_init_f.str1.1
                0x0000000040276b23       0x31 common/built-in.o
 .rodata.board_init_r.str1.1
                0x0000000040276b54       0x31 common/built-in.o
 .rodata.board_late_mmc_env_init.str1.1
                0x0000000040276b54       0x41 board/freescale/common/built-in.o
                                         0x48 (size before relaxing)
 .rodata.boot_fdt_add_mem_rsv_regions.str1.1
                0x0000000040276b95       0x10 common/built-in.o
                                         0x14 (size before relaxing)
 .rodata.boot_fdt_reserve_region.str1.1
                0x0000000040276ba5       0x42 common/built-in.o
 .rodata.boot_get_fdt.str1.1
                0x0000000040276be7      0x1b5 common/built-in.o
                                        0x1d4 (size before relaxing)
 .rodata.boot_get_fdt_fit.str1.1
                0x0000000040276d9c       0x3b common/built-in.o
 .rodata.boot_get_loadable.str1.1
                0x0000000040276dd7       0x3e common/built-in.o
 .rodata.boot_get_ramdisk.str1.1
                0x0000000040276e15       0xb7 common/built-in.o
                                        0x115 (size before relaxing)
 .rodata.boot_get_setup_fit.str1.1
                0x0000000040276ecc       0x3b common/built-in.o
                                          0x6 (size before relaxing)
 .rodata.boot_jump_linux.str1.1
                0x0000000040276ecc       0x30 arch/arm/lib/built-in.o
                                         0x31 (size before relaxing)
 .rodata.boot_prep_linux.str1.1
                0x0000000040276efc       0x20 arch/arm/lib/built-in.o
                                         0x29 (size before relaxing)
 .rodata.boot_prep_vxworks.str1.1
                0x0000000040276f1c       0x2a arch/arm/lib/built-in.o
 .rodata.boot_ramdisk_high.str1.1
                0x0000000040276f46       0x54 common/built-in.o
 .rodata.boot_relocate_fdt.str1.1
                0x0000000040276f9a       0xcf common/built-in.o
                                         0xd3 (size before relaxing)
 .rodata.bootdelay_process.str1.1
                0x0000000040277069       0xd1 common/built-in.o
                                         0xd9 (size before relaxing)
 .rodata.booti_setup.str1.1
                0x000000004027713a       0x4c arch/arm/lib/built-in.o
 .rodata.bootloader_mmc_offset.str1.1
                0x0000000040277186        0x9 drivers/built-in.o
 .rodata.bootm_decomp_image.str1.1
                0x000000004027718f       0x99 common/built-in.o
                                         0xc0 (size before relaxing)
 .rodata.bootm_find_images.str1.1
                0x0000000040277228       0x6c common/built-in.o
 .rodata.bootm_maybe_autostart.str1.1
                0x0000000040277294       0x37 cmd/built-in.o
                                         0x3b (size before relaxing)
 .rodata.bootp_request.str1.1
                0x00000000402772cb       0x25 net/built-in.o
 .rodata.bootp_timeout_handler.str1.1
                0x00000000402772f0       0x26 net/built-in.o
 .rodata.calc_parts_list_len.str1.1
                0x0000000040277316       0x2e cmd/built-in.o
 .rodata.calculate_hash.str1.1
                0x0000000040277344        0x4 common/built-in.o
                                         0x16 (size before relaxing)
 .rodata.check_and_invalidate_dcache_range.isra.5.str1.1
                0x0000000040277348       0x1f drivers/built-in.o
 .rodata.check_command.isra.19.str1.1
                0x0000000040277367        0x9 drivers/usb/gadget/built-in.o
 .rodata.check_reserved.str1.1
                0x0000000040277370       0x27 drivers/gpio/built-in.o
                                         0x28 (size before relaxing)
 .rodata.cli_process_fdt.str1.1
                0x0000000040277397        0xb common/built-in.o
                                         0x13 (size before relaxing)
 .rodata.cli_readline_into_buffer.str1.1
                0x00000000402773a2        0x4 common/built-in.o
                                          0x8 (size before relaxing)
 .rodata.cli_secure_boot_cmd.str1.1
                0x00000000402773a6       0x50 common/built-in.o
 .rodata.cmd_auto_complete.str1.1
                0x00000000402773f6       0x5f common/built-in.o
                                         0x11 (size before relaxing)
 .rodata.cmd_process.str1.1
                0x00000000402773f6       0x3f common/built-in.o
 .rodata.cmd_process_error.str1.1
                0x0000000040277435       0x1f common/built-in.o
 .rodata.cmd_usage.str1.1
                0x0000000040277454       0x36 common/built-in.o
 .rodata.common_diskboot.str1.1
                0x000000004027748a       0xbf cmd/built-in.o
 .rodata.compile.str1.1
                0x0000000040277549       0x4a lib/built-in.o
 .rodata.complete_subcmdv.str1.1
                0x0000000040277593       0x36 common/built-in.o
                                          0x4 (size before relaxing)
 .rodata.composite_unbind.str1.1
                0x0000000040277593       0x38 drivers/usb/gadget/built-in.o
 .rodata.confirm_yesno.str1.1
                0x00000000402775cb       0x10 common/built-in.o
 .rodata.constraint.str1.1
                0x00000000402775db       0x14 cmd/built-in.o
                                         0x23 (size before relaxing)
 .rodata.cread_add_char.str1.1
                0x00000000402775ef        0x5 common/built-in.o
 .rodata.create_gpt_partitions_list.isra.1.str1.1
                0x00000000402775f4       0x28 cmd/built-in.o
                                         0x2a (size before relaxing)
 .rodata.create_table.str1.1
                0x000000004027761c       0x62 arch/arm/cpu/armv8/built-in.o
 .rodata.curr_dev_and_platdata.str1.1
                0x000000004027767e       0x76 cmd/built-in.o
 .rodata.decode_sscg_pll.str1.1
                0x00000000402776f4       0x1a arch/arm/mach-imx/built-in.o
 .rodata.default_environment
                0x000000004027770e      0x8d7 env/built-in.o
                0x000000004027770e                default_environment
 .rodata.dev_get_platdata.str1.1
                0x0000000040277fe5       0x11 drivers/built-in.o
 .rodata.dev_print.str1.1
                0x0000000040277ff6      0x165 disk/built-in.o
                                        0x176 (size before relaxing)
 .rodata.devfdt_get_addr_index.str1.1
                0x000000004027815b        0x4 drivers/built-in.o
 .rodata.device_bind_common.isra.0.str1.1
                0x000000004027815b       0x5b drivers/built-in.o
 .rodata.device_probe.str1.1
                0x00000000402781b6       0x30 drivers/built-in.o
                                         0x38 (size before relaxing)
 .rodata.device_remove.str1.1
                0x00000000402781e6       0x98 drivers/built-in.o
 .rodata.dhcp_extended.str1.1
                0x000000004027827e       0x3f net/built-in.o
 .rodata.dhcp_handler.str1.1
                0x00000000402782bd       0x41 net/built-in.o
                                         0x4a (size before relaxing)
 .rodata.dhcp_process_options.str1.1
                0x00000000402782fe       0x78 net/built-in.o
 .rodata.digits.8311
                0x0000000040278376       0x10 lib/built-in.o
 .rodata.dirletter.9125
                0x0000000040278386        0x4 drivers/usb/gadget/built-in.o
 .rodata.disable_cpu_nodes.str1.1
                0x000000004027838a       0x56 arch/arm/mach-imx/built-in.o
 .rodata.disable_fdt_nodes.str1.1
                0x00000000402783e0       0x58 arch/arm/mach-imx/built-in.o
                                         0x5f (size before relaxing)
 .rodata.disable_mipi_dsi_nodes.str1.1
                0x0000000040278438       0x3f arch/arm/mach-imx/built-in.o
 .rodata.disable_vpu_nodes.str1.1
                0x0000000040278477       0x41 arch/arm/mach-imx/built-in.o
 .rodata.disk_write.str1.1
                0x00000000402784b8       0x18 fs/built-in.o
 .rodata.display_options.str1.1
                0x00000000402784b8        0x3 lib/built-in.o
 .rodata.display_options_get_banner_priv.str1.1
                0x00000000402784b8        0xc lib/built-in.o
                                         0x15 (size before relaxing)
 .rodata.dm_dump_all.str1.1
                0x00000000402784c4       0x73 drivers/built-in.o
 .rodata.dm_dump_uclass.str1.1
                0x0000000040278537       0x33 drivers/built-in.o
                                         0x35 (size before relaxing)
 .rodata.dm_extended_scan_fdt.str1.1
                0x000000004027856a        0x8 drivers/built-in.o
                                         0x12 (size before relaxing)
 .rodata.dm_fdt_pre_reloc.str1.1
                0x0000000040278572       0x30 drivers/built-in.o
 .rodata.dm_gpio_get_value.str1.1
                0x00000000402785a2        0xa drivers/gpio/built-in.o
 .rodata.dm_gpio_set_dir_flags.str1.1
                0x00000000402785ac        0x8 drivers/gpio/built-in.o
 .rodata.dm_gpio_set_value.str1.1
                0x00000000402785b4        0xa drivers/gpio/built-in.o
 .rodata.dm_init.str1.1
                0x00000000402785be       0x25 drivers/built-in.o
 .rodata.dm_root.str1.1
                0x00000000402785e3       0x25 drivers/built-in.o
 .rodata.dm_scan_fdt_node.str1.1
                0x0000000040278608       0x1d drivers/built-in.o
                                         0x2d (size before relaxing)
 .rodata.dm_scan_platdata.str1.1
                0x0000000040278625       0x1d drivers/built-in.o
 .rodata.do_bad_error.str1.1
                0x0000000040278642       0x29 arch/arm/lib/built-in.o
 .rodata.do_bad_fiq.str1.1
                0x000000004027866b       0x27 arch/arm/lib/built-in.o
 .rodata.do_bad_irq.str1.1
                0x0000000040278692       0x27 arch/arm/lib/built-in.o
 .rodata.do_bad_sync.str1.1
                0x00000000402786b9       0x48 arch/arm/lib/built-in.o
 .rodata.do_bdinfo.str1.1
                0x0000000040278701       0x9e cmd/built-in.o
 .rodata.do_bootaux.str1.1
                0x000000004027879f       0x4c arch/arm/mach-imx/built-in.o
 .rodata.do_bootd.str1.1
                0x00000000402787eb       0x37 cmd/built-in.o
                                          0x8 (size before relaxing)
 .rodata.do_bootefi.str1.1
                0x00000000402787eb       0xf4 cmd/built-in.o
 .rodata.do_bootefi_exec.str1.1
                0x00000000402788df       0xc0 cmd/built-in.o
                                         0xc9 (size before relaxing)
 .rodata.do_bootelf.str1.1
                0x000000004027899f       0x4f cmd/built-in.o
                                         0x5c (size before relaxing)
 .rodata.do_bootm.str1.1
                0x00000000402789ee       0x2a cmd/built-in.o
 .rodata.do_bootm_plan9.str1.1
                0x0000000040278a18       0x43 common/built-in.o
 .rodata.do_bootm_qnxelf.str1.1
                0x0000000040278a5b        0x4 common/built-in.o
 .rodata.do_bootm_rtems.str1.1
                0x0000000040278a5b       0x39 common/built-in.o
 .rodata.do_bootm_standalone.str1.1
                0x0000000040278a94       0x16 common/built-in.o
 .rodata.do_bootm_states.str1.1
                0x0000000040278a94      0x2b0 common/built-in.o
                                        0x328 (size before relaxing)
 .rodata.do_bootm_vxworks.str1.1
                0x0000000040278d44       0x57 common/built-in.o
                                         0x7e (size before relaxing)
 .rodata.do_bootvx.str1.1
                0x0000000040278d9b      0x1b8 cmd/built-in.o
                                        0x1d0 (size before relaxing)
 .rodata.do_coninfo.str1.1
                0x0000000040278f53       0x2c cmd/built-in.o
                                         0x30 (size before relaxing)
 .rodata.do_current.str1.1
                0x0000000040278f7f       0x84 cmd/built-in.o
 .rodata.do_dcache.str1.1
                0x0000000040279003       0x21 cmd/built-in.o
 .rodata.do_dev.str1.1
                0x0000000040279024       0xbb cmd/built-in.o
 .rodata.do_disable.str1.1
                0x00000000402790df       0x20 cmd/built-in.o
 .rodata.do_echo.str1.1
                0x00000000402790ff        0x3 cmd/built-in.o
 .rodata.do_enable.str1.1
                0x0000000040279102       0x1f cmd/built-in.o
 .rodata.do_env_default.str1.1
                0x0000000040279121       0x25 cmd/built-in.o
 .rodata.do_env_edit.part.3.str1.1
                0x0000000040279146        0x7 cmd/built-in.o
                                          0xa (size before relaxing)
 .rodata.do_env_print.str1.1
                0x000000004027914d       0x3d cmd/built-in.o
 .rodata.do_env_print_efi.str1.1
                0x000000004027918a       0x33 cmd/built-in.o
 .rodata.do_env_set_efi.str1.1
                0x00000000402791bd        0xe cmd/built-in.o
 .rodata.do_error.str1.1
                0x00000000402791cb       0x48 arch/arm/lib/built-in.o
                                         0x1d (size before relaxing)
 .rodata.do_fastboot.str1.1
                0x00000000402791cb       0xc2 cmd/built-in.o
                                         0xc6 (size before relaxing)
 .rodata.do_fat_fsinfo.str1.1
                0x000000004027928d       0x56 cmd/built-in.o
 .rodata.do_fat_fswrite.str1.1
                0x00000000402792e3       0x6b cmd/built-in.o
 .rodata.do_fdt.str1.1
                0x000000004027934e      0x48c cmd/built-in.o
                                        0x4e8 (size before relaxing)
 .rodata.do_fiq.str1.1
                0x00000000402797da       0x48 arch/arm/lib/built-in.o
                                         0x1b (size before relaxing)
 .rodata.do_fixup_by_path.str1.1
                0x00000000402797da       0x29 common/built-in.o
 .rodata.do_fuse.str1.1
                0x00000000402797da      0x198 cmd/built-in.o
                                        0x1a4 (size before relaxing)
 .rodata.do_go.str1.1
                0x0000000040279972       0x4f cmd/built-in.o
 .rodata.do_gpio.str1.1
                0x00000000402799c1       0xc4 cmd/built-in.o
                                         0xd2 (size before relaxing)
 .rodata.do_gpt.str1.1
                0x0000000040279a85      0x1ad cmd/built-in.o
                                        0x1cb (size before relaxing)
 .rodata.do_i2c_bus_num.str1.1
                0x0000000040279c32       0x48 cmd/built-in.o
 .rodata.do_i2c_bus_speed.str1.1
                0x0000000040279c7a       0x53 cmd/built-in.o
 .rodata.do_i2c_crc.str1.1
                0x0000000040279ccd       0x1f cmd/built-in.o
                                         0x26 (size before relaxing)
 .rodata.do_i2c_md.str1.1
                0x0000000040279cec        0xc cmd/built-in.o
                                         0x16 (size before relaxing)
 .rodata.do_i2c_olen.str1.1
                0x0000000040279cf8       0x1f cmd/built-in.o
                                         0x23 (size before relaxing)
 .rodata.do_i2c_probe.str1.1
                0x0000000040279d17       0x1c cmd/built-in.o
 .rodata.do_i2c_reset.str1.1
                0x0000000040279d33       0x24 cmd/built-in.o
 .rodata.do_i2c_show_bus.str1.1
                0x0000000040279d57       0x18 cmd/built-in.o
 .rodata.do_i2c_write.str1.1
                0x0000000040279d6f        0x3 cmd/built-in.o
 .rodata.do_icache.str1.1
                0x0000000040279d72       0x1d cmd/built-in.o
                                         0x20 (size before relaxing)
 .rodata.do_imgextract.str1.1
                0x0000000040279d8f      0x1af cmd/built-in.o
                                        0x296 (size before relaxing)
 .rodata.do_imx8m_showclocks.str1.1
                0x0000000040279f3e      0x234 arch/arm/mach-imx/built-in.o
 .rodata.do_info.str1.1
                0x000000004027a172       0xee cmd/built-in.o
                                         0xf9 (size before relaxing)
 .rodata.do_irq.str1.1
                0x000000004027a260       0x48 arch/arm/lib/built-in.o
                                         0x1b (size before relaxing)
 .rodata.do_itest.str1.1
                0x000000004027a260       0x1e cmd/built-in.o
 .rodata.do_list.str1.1
                0x000000004027a27e       0x33 cmd/built-in.o
                                         0x5e (size before relaxing)
 .rodata.do_load.str1.1
                0x000000004027a2b1       0x39 fs/built-in.o
                                         0x5b (size before relaxing)
 .rodata.do_load_serial.str1.1
                0x000000004027a2ea       0x6b cmd/built-in.o
 .rodata.do_load_serial_bin.str1.1
                0x000000004027a355      0x159 cmd/built-in.o
 .rodata.do_ls.str1.1
                0x000000004027a4ae        0x2 fs/built-in.o
 .rodata.do_lzmadec.str1.1
                0x000000004027a4ae       0x1f cmd/built-in.o
                                         0x28 (size before relaxing)
 .rodata.do_mdio.str1.1
                0x000000004027a4cd       0x65 cmd/built-in.o
 .rodata.do_mem_base.str1.1
                0x000000004027a532       0x17 cmd/built-in.o
 .rodata.do_mem_cmp.str1.1
                0x000000004027a549       0x6a cmd/built-in.o
                                         0x6f (size before relaxing)
 .rodata.do_mem_cp.str1.1
                0x000000004027a5b3       0x11 cmd/built-in.o
 .rodata.do_mem_mtest.str1.1
                0x000000004027a5c4       0xd4 cmd/built-in.o
                                         0xd5 (size before relaxing)
 .rodata.do_mii.str1.1
                0x000000004027a698      0x294 cmd/built-in.o
                                        0x2b0 (size before relaxing)
 .rodata.do_mkdir.str1.1
                0x000000004027a92c       0x29 fs/built-in.o
 .rodata.do_mmc_boot_resize.str1.1
                0x000000004027a955       0x82 cmd/built-in.o
 .rodata.do_mmc_bootbus.str1.1
                0x000000004027a9d7       0x24 cmd/built-in.o
 .rodata.do_mmc_dev.str1.1
                0x000000004027a9fb       0x80 cmd/built-in.o
                                         0x89 (size before relaxing)
 .rodata.do_mmc_erase.str1.1
                0x000000004027aa7b       0x67 cmd/built-in.o
 .rodata.do_mmc_hwpartition.str1.1
                0x000000004027aae2      0x126 cmd/built-in.o
                                        0x142 (size before relaxing)
 .rodata.do_mmc_part.str1.1
                0x000000004027ac08       0x15 cmd/built-in.o
 .rodata.do_mmc_partconf.str1.1
                0x000000004027ac1d       0xac cmd/built-in.o
 .rodata.do_mmc_read.str1.1
                0x000000004027acc9       0x43 cmd/built-in.o
 .rodata.do_mmc_rst_func.str1.1
                0x000000004027ad0c       0x40 cmd/built-in.o
 .rodata.do_mmc_setdsr.str1.1
                0x000000004027ad4c       0x1d cmd/built-in.o
 .rodata.do_mmc_write.str1.1
                0x000000004027ad69       0x47 cmd/built-in.o
 .rodata.do_mmcinfo.str1.1
                0x000000004027adb0      0x135 cmd/built-in.o
                                        0x187 (size before relaxing)
 .rodata.do_mmcops.str1.1
                0x000000004027aee5       0x19 cmd/built-in.o
 .rodata.do_mode.str1.1
                0x000000004027aefe       0x6b cmd/built-in.o
 .rodata.do_ping.str1.1
                0x000000004027af69       0x35 cmd/built-in.o
 .rodata.do_raw_read.str1.1
                0x000000004027af9e       0x5c cmd/built-in.o
                                         0x7e (size before relaxing)
 .rodata.do_reset.str1.1
                0x000000004027affa        0xf arch/arm/lib/built-in.o
 .rodata.do_run.str1.1
                0x000000004027b009       0x1c common/built-in.o
 .rodata.do_save.str1.1
                0x000000004027b009       0x1d fs/built-in.o
 .rodata.do_setexpr.str1.1
                0x000000004027b026       0x11 cmd/built-in.o
                                         0x15 (size before relaxing)
 .rodata.do_showvar.str1.1
                0x000000004027b037        0xc common/built-in.o
                                         0x2f (size before relaxing)
 .rodata.do_size.str1.1
                0x000000004027b043        0x9 fs/built-in.o
 .rodata.do_source.str1.1
                0x000000004027b043       0x1e cmd/built-in.o
 .rodata.do_spi_flash.str1.1
                0x000000004027b061      0x1ad cmd/built-in.o
                                        0x1de (size before relaxing)
 .rodata.do_status.str1.1
                0x000000004027b20e       0xc1 cmd/built-in.o
                                         0xfa (size before relaxing)
 .rodata.do_sync.str1.1
                0x000000004027b2cf       0x48 arch/arm/lib/built-in.o
                                         0x29 (size before relaxing)
 .rodata.do_unzip.str1.1
                0x000000004027b2cf       0x20 cmd/built-in.o
                                         0x29 (size before relaxing)
 .rodata.do_usb.str1.1
                0x000000004027b2ef      0x279 cmd/built-in.o
                                        0x293 (size before relaxing)
 .rodata.do_usb_mass_storage.str1.1
                0x000000004027b568      0x123 cmd/built-in.o
                                        0x151 (size before relaxing)
 .rodata.do_usbboot.str1.1
                0x000000004027b68b        0x4 cmd/built-in.o
 .rodata.do_value.str1.1
                0x000000004027b68f       0x88 cmd/built-in.o
                                         0x8f (size before relaxing)
 .rodata.do_version.str1.1
                0x000000004027b717       0x4b cmd/built-in.o
 .rodata.do_write.str1.1
                0x000000004027b762       0x18 drivers/usb/gadget/built-in.o
 .rodata.download.str1.1
                0x000000004027b77a       0x5b drivers/built-in.o
                                         0x5e (size before relaxing)
 .rodata.dp_unknown.str1.1
                0x000000004027b7d5       0x13 lib/built-in.o
 .rodata.dwc3_core_init.str1.1
                0x000000004027b7e8       0x28 drivers/usb/host/built-in.o
 .rodata.dwc3_endpoint_transfer_complete.str1.1
                0x000000004027b7e8       0x3c drivers/usb/dwc3/built-in.o
 .rodata.dwc3_ep0_interrupt.str1.1
                0x000000004027b824       0x38 drivers/usb/dwc3/built-in.o
 .rodata.dwc3_gadget_ep_dequeue.str1.1
                0x000000004027b85c       0x21 drivers/usb/dwc3/built-in.o
 .rodata.dwc3_gadget_ep_disable.str1.1
                0x000000004027b87d       0x18 drivers/usb/dwc3/built-in.o
 .rodata.dwc3_gadget_ep_enable.str1.1
                0x000000004027b895       0x31 drivers/usb/dwc3/built-in.o
 .rodata.dwc3_gadget_ep_queue.str1.1
                0x000000004027b8c6       0x1c drivers/usb/dwc3/built-in.o
 .rodata.dwc3_gadget_init.str1.1
                0x000000004027b8e2       0x87 drivers/usb/dwc3/built-in.o
 .rodata.dwc3_gadget_init_hw_endpoints.str1.1
                0x000000004027b969       0x2b drivers/usb/dwc3/built-in.o
                                         0x32 (size before relaxing)
 .rodata.dwc3_gadget_start.str1.1
                0x000000004027b994       0x30 drivers/usb/dwc3/built-in.o
 .rodata.dwc3_gadget_uboot_handle_interrupt.str1.1
                0x000000004027b9c4       0x88 drivers/usb/dwc3/built-in.o
 .rodata.dwc3_gadget_wakeup.str1.1
                0x000000004027ba4c       0x3e drivers/usb/dwc3/built-in.o
 .rodata.dwc3_uboot_init.str1.1
                0x000000004027ba8a      0x106 drivers/usb/dwc3/built-in.o
 .rodata.efi_bl_bind.str1.1
                0x000000004027bb90       0x12 lib/built-in.o
 .rodata.efi_bootmgr_load.str1.1
                0x000000004027bba2       0x25 lib/built-in.o
 .rodata.efi_console_register.str1.1
                0x000000004027bbc7       0x9b lib/built-in.o
                                         0xb8 (size before relaxing)
 .rodata.efi_convert_single_device_node_to_text.str1.1
                0x000000004027bc62      0x11a lib/built-in.o
                                        0x124 (size before relaxing)
 .rodata.efi_cout_clear_screen.str1.1
                0x000000004027bd7c        0x5 lib/built-in.o
 .rodata.efi_cout_enable_cursor.str1.1
                0x000000004027bd81        0x8 lib/built-in.o
 .rodata.efi_cout_set_attribute.str1.1
                0x000000004027bd89       0x17 lib/built-in.o
 .rodata.efi_cout_set_cursor_position.str1.1
                0x000000004027bda0        0x9 lib/built-in.o
 .rodata.efi_disk_create_partitions.str1.1
                0x000000004027bda9       0x22 lib/built-in.o
 .rodata.efi_disk_register.str1.1
                0x000000004027bdcb       0x67 lib/built-in.o
 .rodata.efi_dp_from_name.str1.1
                0x000000004027be32        0x4 lib/built-in.o
                                          0x7 (size before relaxing)
 .rodata.efi_driver_init.str1.1
                0x000000004027be36       0x58 lib/built-in.o
 .rodata.efi_dump_single_var.str1.1
                0x000000004027be8e       0x33 cmd/built-in.o
                                         0x38 (size before relaxing)
 .rodata.efi_exit.str1.1
                0x000000004027bec1       0x17 lib/built-in.o
 .rodata.efi_file_from_path.str1.1
                0x000000004027bed8       0x10 lib/built-in.o
 .rodata.efi_get_next_variable_name.str1.1
                0x000000004027bee8       0x16 lib/built-in.o
 .rodata.efi_get_variable.str1.1
                0x000000004027befe        0x7 lib/built-in.o
                                          0xe (size before relaxing)
 .rodata.efi_install_fdt.str1.1
                0x000000004027bf05       0x93 cmd/built-in.o
 .rodata.efi_load_pe.str1.1
                0x000000004027bf98       0xca lib/built-in.o
 .rodata.efi_net_register.str1.1
                0x000000004027c062       0x6d lib/built-in.o
                                         0x83 (size before relaxing)
 .rodata.efi_set_code_and_data_type.str1.1
                0x000000004027c0cf       0x1c lib/built-in.o
 .rodata.efi_set_variable.str1.1
                0x000000004027c0eb       0x14 lib/built-in.o
                                         0x1a (size before relaxing)
 .rodata.efi_setup_loaded_image.str1.1
                0x000000004027c0ff       0x36 lib/built-in.o
 .rodata.efi_to_native.str1.1
                0x000000004027c135       0x34 lib/built-in.o
 .rodata.efi_uc_destroy.str1.1
                0x000000004027c169       0x18 lib/built-in.o
 .rodata.efi_uc_init.str1.1
                0x000000004027c181       0x1e lib/built-in.o
 .rodata.efi_uc_stop.str1.1
                0x000000004027c19f       0x1d lib/built-in.o
 .rodata.efi_watchdog_register.str1.1
                0x000000004027c1bc       0x4f lib/built-in.o
 .rodata.efi_watchdog_timer_notify.str1.1
                0x000000004027c20b       0x18 lib/built-in.o
 .rodata.emit.str1.1
                0x000000004027c223       0x1f lib/built-in.o
 .rodata.env_callback_init.str1.1
                0x000000004027c242        0xb env/built-in.o
 .rodata.env_complete.str1.1
                0x000000004027c24d        0x7 env/built-in.o
                                         0x10 (size before relaxing)
 .rodata.env_export.str1.1
                0x000000004027c254       0x27 env/built-in.o
 .rodata.env_flags_init.str1.1
                0x000000004027c27b        0x7 env/built-in.o
 .rodata.env_flags_parse_varaccess.str1.1
                0x000000004027c282       0x3d env/built-in.o
 .rodata.env_flags_parse_vartype.str1.1
                0x000000004027c2bf       0x34 env/built-in.o
 .rodata.env_flags_validate.str1.1
                0x000000004027c2f3       0xb2 env/built-in.o
                                         0xb3 (size before relaxing)
 .rodata.env_flags_varaccess_rep
                0x000000004027c3a5        0x5 env/built-in.o
 .rodata.env_flags_vartype_rep
                0x000000004027c3aa        0x7 env/built-in.o
 .rodata.env_get_bootm_low.str1.1
                0x000000004027c3b1        0xa common/built-in.o
 .rodata.env_get_bootm_mapsize.str1.1
                0x000000004027c3bb        0xe common/built-in.o
 .rodata.env_get_bootm_size.str1.1
                0x000000004027c3c9        0xb common/built-in.o
 .rodata.env_get_f.str1.1
                0x000000004027c3d4       0x30 cmd/built-in.o
 .rodata.env_import.str1.1
                0x000000004027c404       0x3d env/built-in.o
 .rodata.env_load.str1.1
                0x000000004027c441       0x20 env/built-in.o
                                         0x24 (size before relaxing)
 .rodata.env_mmc_load.str1.1
                0x000000004027c461        0xd env/built-in.o
 .rodata.env_mmc_save.str1.1
                0x000000004027c46e       0x3b env/built-in.o
                                         0x48 (size before relaxing)
 .rodata.env_print.str1.1
                0x000000004027c4a9       0x25 cmd/built-in.o
                                         0x2c (size before relaxing)
 .rodata.env_save.str1.1
                0x000000004027c4ce       0x2a env/built-in.o
 .rodata.env_set.str1.1
                0x000000004027c4f8        0x7 cmd/built-in.o
 .rodata.env_set_hex.str1.1
                0x000000004027c4ff        0x4 cmd/built-in.o
 .rodata.erase_seq
                0x000000004027c503        0x4 common/built-in.o
 .rodata.eth_current_changed.str1.1
                0x000000004027c507       0x14 net/built-in.o
 .rodata.eth_env_get_enetaddr_by_index.str1.1
                0x000000004027c507       0x10 net/built-in.o
 .rodata.eth_env_set_enetaddr.str1.1
                0x000000004027c517        0x4 cmd/built-in.o
 .rodata.eth_get_name.str1.1
                0x000000004027c51b        0x8 net/built-in.o
 .rodata.eth_init.str1.1
                0x000000004027c51b       0x11 net/built-in.o
                                         0x28 (size before relaxing)
 .rodata.eth_initialize.str1.1
                0x000000004027c52c       0x1c net/built-in.o
                                         0x1f (size before relaxing)
 .rodata.eth_mac_skip.str1.1
                0x000000004027c548       0x18 net/built-in.o
 .rodata.eth_post_bind.str1.1
                0x000000004027c560       0x2b net/built-in.o
 .rodata.eth_post_probe.str1.1
                0x000000004027c58b       0xb3 net/built-in.o
 .rodata.eth_set_current.str1.1
                0x000000004027c63e        0x9 net/built-in.o
 .rodata.eth_write_hwaddr.str1.1
                0x000000004027c63e       0x4e net/built-in.o
 .rodata.ext4_read_file.str1.1
                0x000000004027c68c       0x19 fs/built-in.o
 .rodata.ext4_write_file.str1.1
                0x000000004027c6a5       0x42 fs/built-in.o
 .rodata.ext4fs_allocate_blocks.str1.1
                0x000000004027c6e7       0x23 fs/built-in.o
 .rodata.ext4fs_check_journal_state.str1.1
                0x000000004027c70a       0x2e fs/built-in.o
 .rodata.ext4fs_filename_unlink.str1.1
                0x000000004027c738       0x16 fs/built-in.o
 .rodata.ext4fs_get_bgdtable.str1.1
                0x000000004027c74e       0x19 fs/built-in.o
 .rodata.ext4fs_get_parent_inode_num.str1.1
                0x000000004027c767       0x3e fs/built-in.o
                                         0x40 (size before relaxing)
 .rodata.ext4fs_init.str1.1
                0x000000004027c7a5       0x33 fs/built-in.o
 .rodata.ext4fs_iterate_dir.str1.1
                0x000000004027c7d8       0x43 fs/built-in.o
                                         0x4a (size before relaxing)
 .rodata.ext4fs_log_journal.str1.1
                0x000000004027c81b       0x1c fs/built-in.o
 .rodata.ext4fs_ls.str1.1
                0x000000004027c837       0x1f fs/built-in.o
 .rodata.ext4fs_mount.str1.1
                0x000000004027c856       0x24 fs/built-in.o
 .rodata.ext4fs_push_revoke_blk.str1.1
                0x000000004027c87a       0x2e fs/built-in.o
 .rodata.ext4fs_update_journal.str1.1
                0x000000004027c8a8       0x19 fs/built-in.o
 .rodata.ext4fs_update_parent_dentry.str1.1
                0x000000004027c8c1       0x9f fs/built-in.o
 .rodata.ext4fs_write.str1.1
                0x000000004027c960       0xaf fs/built-in.o
 .rodata.extract_env.str1.1
                0x000000004027ca0f        0x3 cmd/built-in.o
 .rodata.extract_val.str1.1
                0x000000004027ca12        0x4 cmd/built-in.o
 .rodata.failure.str1.1
                0x000000004027ca12       0x10 cmd/built-in.o
 .rodata.fastboot_add.str1.1
                0x000000004027ca22        0xb drivers/usb/gadget/built-in.o
 .rodata.fastboot_bind.str1.1
                0x000000004027ca2d        0x8 drivers/usb/gadget/built-in.o
 .rodata.fastboot_boot.str1.1
                0x000000004027ca2d       0x2c drivers/built-in.o
                                         0x31 (size before relaxing)
 .rodata.fastboot_complete.str1.1
                0x000000004027ca59       0x1e drivers/usb/gadget/built-in.o
 .rodata.fastboot_data_complete.str1.1
                0x000000004027ca77       0x32 drivers/built-in.o
                                         0x3b (size before relaxing)
 .rodata.fastboot_data_download.str1.1
                0x000000004027caa9       0x1d drivers/built-in.o
 .rodata.fastboot_fail.str1.1
                0x000000004027cac6        0x5 drivers/built-in.o
                                          0x8 (size before relaxing)
 .rodata.fastboot_fifo_complete.str1.1
                0x000000004027cacb       0x13 drivers/usb/gadget/built-in.o
 .rodata.fastboot_flash_dump_ptn.str1.1
                0x000000004027cade       0x2a drivers/built-in.o
 .rodata.fastboot_getvar.str1.1
                0x000000004027cb08      0x143 drivers/built-in.o
                                        0x147 (size before relaxing)
 .rodata.fastboot_handle_command.str1.1
                0x000000004027cc4b       0x31 drivers/built-in.o
                                         0x35 (size before relaxing)
 .rodata.fastboot_init.str1.1
                0x000000004027cc7c       0x10 drivers/built-in.o
 .rodata.fastboot_name
                0x000000004027cc8c       0x11 drivers/usb/gadget/built-in.o
 .rodata.fastboot_okay.str1.1
                0x000000004027cc9d        0x5 drivers/built-in.o
 .rodata.fastboot_parts_get_name.str1.1
                0x000000004027cca2        0x6 drivers/built-in.o
 .rodata.fastboot_parts_is_raw.str1.1
                0x000000004027cca8        0x5 drivers/built-in.o
                                          0xa (size before relaxing)
 .rodata.fastboot_process_erase.str1.1
                0x000000004027ccad      0x139 drivers/built-in.o
                                        0x15c (size before relaxing)
 .rodata.fastboot_run_bootmode.str1.1
                0x000000004027cde6       0x12 drivers/built-in.o
 .rodata.fastboot_set_alt.str1.1
                0x000000004027cdf8       0x5f drivers/usb/gadget/built-in.o
 .rodata.fastboot_setup.str1.1
                0x000000004027ce57       0x26 drivers/built-in.o
 .rodata.fastboot_tx_write_more.str1.1
                0x000000004027ce57       0x2a drivers/usb/gadget/built-in.o
 .rodata.fat_itr_resolve.str1.1
                0x000000004027ce81       0x34 fs/built-in.o
                                          0x5 (size before relaxing)
 .rodata.fat_itr_root.str1.1
                0x000000004027ce81       0x85 fs/built-in.o
 .rodata.fat_mkdir.str1.1
                0x000000004027cf06       0x26 fs/built-in.o
                                         0x2a (size before relaxing)
 .rodata.fat_read_file.str1.1
                0x000000004027cf2c       0x1e fs/built-in.o
 .rodata.fat_set_blk_dev.str1.1
                0x000000004027cf4a        0x3 fs/built-in.o
                                          0xd (size before relaxing)
 .rodata.fat_unlink.str1.1
                0x000000004027cf4d       0x6b fs/built-in.o
                                         0x6c (size before relaxing)
 .rodata.fdt_address_cells.str1.1
                0x000000004027cfb8        0xf lib/built-in.o
 .rodata.fdt_chosen.str1.1
                0x000000004027cfc7       0x35 common/built-in.o
                                         0x3e (size before relaxing)
 .rodata.fdt_error.str1.1
                0x000000004027cffc       0x2d common/built-in.o
 .rodata.fdt_find_or_add_subnode.str1.1
                0x000000004027d029        0xc common/built-in.o
 .rodata.fdt_fixup_esdhc.str1.1
                0x000000004027d035       0x1a drivers/built-in.o
 .rodata.fdt_fixup_ethernet.str1.1
                0x000000004027d04f       0x2e common/built-in.o
                                         0x42 (size before relaxing)
 .rodata.fdt_fixup_memory_banks.str1.1
                0x000000004027d07d       0x85 common/built-in.o
                                         0x94 (size before relaxing)
 .rodata.fdt_get_alias_namelen.str1.1
                0x000000004027d102        0x9 lib/built-in.o
 .rodata.fdt_get_phandle.str1.1
                0x000000004027d102        0xe lib/built-in.o
                                         0x16 (size before relaxing)
 .rodata.fdt_initrd.str1.1
                0x000000004027d110       0x90 common/built-in.o
                                         0x97 (size before relaxing)
 .rodata.fdt_root.str1.1
                0x000000004027d1a0       0x4e common/built-in.o
 .rodata.fdt_size_cells.str1.1
                0x000000004027d1ee        0xc lib/built-in.o
 .rodata.fdt_strerror.str1.1
                0x000000004027d1ee       0x31 lib/built-in.o
 .rodata.fdt_support_default_count_cells.str1.1
                0x000000004027d21f        0xc common/built-in.o
 .rodata.fdt_translate_address.str1.1
                0x000000004027d22b       0x22 common/built-in.o
 .rodata.fdt_valid.str1.1
                0x000000004027d24d       0x79 cmd/built-in.o
                                         0x7b (size before relaxing)
 .rodata.fdtdec_add_aliases_for_id.str1.1
                0x000000004027d2c6        0x9 lib/built-in.o
 .rodata.fdtdec_get_config_int.str1.1
                0x000000004027d2c6        0x8 lib/built-in.o
 .rodata.fdtdec_get_is_enabled.str1.1
                0x000000004027d2ce        0x5 lib/built-in.o
                                          0xc (size before relaxing)
 .rodata.fdtdec_prepare_fdt.str1.1
                0x000000004027d2d3       0x96 lib/built-in.o
 .rodata.fdtdec_setup.str1.1
                0x000000004027d369        0xf lib/built-in.o
 .rodata.fec_get_miibus.str1.1
                0x000000004027d369       0x33 drivers/net/built-in.o
 .rodata.fec_mii_setspeed.isra.5.str1.1
                0x000000004027d39c       0x1e drivers/net/built-in.o
 .rodata.fec_phy_read.str1.1
                0x000000004027d3ba       0x15 drivers/net/built-in.o
 .rodata.fec_phy_write.str1.1
                0x000000004027d3cf       0x16 drivers/net/built-in.o
 .rodata.fecmxc_init.str1.1
                0x000000004027d3e5       0x1d drivers/net/built-in.o
 .rodata.fecmxc_ofdata_to_platdata.str1.1
                0x000000004027d402       0xb0 drivers/net/built-in.o
 .rodata.fecmxc_probe.str1.1
                0x000000004027d4b2       0x99 drivers/net/built-in.o
                                         0x9d (size before relaxing)
 .rodata.fecmxc_recv.str1.1
                0x000000004027d54b       0x33 drivers/net/built-in.o
 .rodata.fecmxc_send.str1.1
                0x000000004027d57e       0x18 drivers/net/built-in.o
 .rodata.file_fat_detectfs.str1.1
                0x000000004027d596       0x64 fs/built-in.o
                                         0x84 (size before relaxing)
 .rodata.file_fat_read_at.str1.1
                0x000000004027d5fa       0x2a fs/built-in.o
 .rodata.file_fat_write_at.str1.1
                0x000000004027d624       0xa7 fs/built-in.o
 .rodata.file_get.str1.1
                0x000000004027d6cb        0xa common/built-in.o
                                          0xd (size before relaxing)
 .rodata.file_open.str1.1
                0x000000004027d6d5        0xa lib/built-in.o
                                          0xb (size before relaxing)
 .rodata.find_mmc_device.str1.1
                0x000000004027d6df       0x19 drivers/built-in.o
 .rodata.finish_access.str1.1
                0x000000004027d6f8       0x26 drivers/built-in.o
 .rodata.fit_all_image_verify.str1.1
                0x000000004027d71e       0x51 common/built-in.o
 .rodata.fit_get_desc.str1.1
                0x000000004027d76f        0xc common/built-in.o
 .rodata.fit_image_get_address.str1.1
                0x000000004027d77b       0x1d common/built-in.o
 .rodata.fit_image_get_arch.str1.1
                0x000000004027d798       0x1d common/built-in.o
                                          0x5 (size before relaxing)
 .rodata.fit_image_get_comp.str1.1
                0x000000004027d798        0xc common/built-in.o
 .rodata.fit_image_get_data.str1.1
                0x000000004027d798       0x1d common/built-in.o
                                          0x5 (size before relaxing)
 .rodata.fit_image_get_data_offset.str1.1
                0x000000004027d798        0xc common/built-in.o
 .rodata.fit_image_get_data_position.str1.1
                0x000000004027d7a4        0xe common/built-in.o
 .rodata.fit_image_get_data_size.str1.1
                0x000000004027d7b2        0xa common/built-in.o
 .rodata.fit_image_get_entry.str1.1
                0x000000004027d7bc        0x6 common/built-in.o
 .rodata.fit_image_get_load.str1.1
                0x000000004027d7c2        0x6 common/built-in.o
                                          0x5 (size before relaxing)
 .rodata.fit_image_get_node.str1.1
                0x000000004027d7c2        0x8 common/built-in.o
 .rodata.fit_image_get_os.str1.1
                0x000000004027d7c2        0x6 common/built-in.o
                                          0x3 (size before relaxing)
 .rodata.fit_image_get_type.str1.1
                0x000000004027d7c2        0x6 common/built-in.o
                                          0x5 (size before relaxing)
 .rodata.fit_image_hash_get_algo.str1.1
                0x000000004027d7c2        0x5 common/built-in.o
 .rodata.fit_image_hash_get_value.str1.1
                0x000000004027d7c7        0x6 common/built-in.o
 .rodata.fit_image_load.str1.1
                0x000000004027d7c7      0x1cd common/built-in.o
                                        0x1e0 (size before relaxing)
 .rodata.fit_image_print.str1.1
                0x000000004027d994       0xd2 common/built-in.o
                                         0xdf (size before relaxing)
 .rodata.fit_image_print_data.str1.1
                0x000000004027da66       0x83 common/built-in.o
                                         0x91 (size before relaxing)
 .rodata.fit_image_print_verification_data.str1.1
                0x000000004027dae9       0x19 common/built-in.o
 .rodata.fit_image_verify.str1.1
                0x000000004027db02       0x1a common/built-in.o
                                         0x4b (size before relaxing)
 .rodata.fit_image_verify_with_data.str1.1
                0x000000004027db1c       0xe0 common/built-in.o
 .rodata.fit_print_contents.str1.1
                0x000000004027dbfc      0x127 common/built-in.o
                                        0x15e (size before relaxing)
 .rodata.fixed_regulator_ofdata_to_platdata.str1.1
                0x000000004027dd23       0x3b drivers/power/regulator/built-in.o
                                         0x40 (size before relaxing)
 .rodata.fixed_regulator_set_enable.str1.1
                0x000000004027dd5e       0x26 drivers/power/regulator/built-in.o
 .rodata.flash.str1.1
                0x000000004027dd84       0x17 drivers/built-in.o
 .rodata.flush_dir_table.str1.1
                0x000000004027dd9b       0x54 fs/built-in.o
 .rodata.fs_devread.str1.1
                0x000000004027ddef       0x98 fs/built-in.o
 .rodata.fs_ls_generic.str1.1
                0x000000004027de87       0x37 fs/built-in.o
 .rodata.fs_probe_unsupported.str1.1
                0x000000004027debe       0x24 fs/built-in.o
 .rodata.fs_read_lmb_check.isra.1.str1.1
                0x000000004027dee2       0x34 fs/built-in.o
 .rodata.fs_write.str1.1
                0x000000004027df16       0x1f fs/built-in.o
 .rodata.fsg_add.str1.1
                0x000000004027df35       0x5b drivers/usb/gadget/built-in.o
 .rodata.fsg_main_thread.str1.1
                0x000000004027df90        0xe drivers/usb/gadget/built-in.o
 .rodata.fsg_setup.str1.1
                0x000000004027df9e       0x24 drivers/usb/gadget/built-in.o
                                         0x3c (size before relaxing)
 .rodata.fsg_string_interface
                0x000000004027dfc2        0xd drivers/usb/gadget/built-in.o
 .rodata.fsl_esdhc_probe.str1.1
                0x000000004027dfcf      0x119 drivers/built-in.o
                                        0x130 (size before relaxing)
 .rodata.fsl_esdhc_send_cmd.str1.1
                0x000000004027e0e8       0xb8 drivers/built-in.o
 .rodata.fsl_esdhc_set_ios.str1.1
                0x000000004027e1a0       0x9c drivers/built-in.o
                                         0xa4 (size before relaxing)
 .rodata.fsl_qspi_ofdata_to_platdata.str1.1
                0x000000004027e23c       0x33 drivers/spi/built-in.o
                                         0x49 (size before relaxing)
 .rodata.fsl_qspi_probe.str1.1
                0x000000004027e26f       0x1f drivers/spi/built-in.o
 .rodata.ft_system_setup.str1.1
                0x000000004027e28e      0x18a arch/arm/mach-imx/built-in.o
                                        0x19c (size before relaxing)
 .rodata.fuse_sense.str1.1
                0x000000004027e418       0x28 drivers/built-in.o
 .rodata.g_dnl_bind.str1.1
                0x000000004027e440        0xb drivers/usb/gadget/built-in.o
                                         0x17 (size before relaxing)
 .rodata.g_dnl_register.str1.1
                0x000000004027e44b       0x18 drivers/usb/gadget/built-in.o
 .rodata.genimg_get_arch_id.str1.1
                0x000000004027e463        0xb common/built-in.o
                                          0x4 (size before relaxing)
 .rodata.genimg_get_arch_name.str1.1
                0x000000004027e463       0x15 common/built-in.o
 .rodata.genimg_get_comp_id.str1.1
                0x000000004027e478       0x15 common/built-in.o
                                          0xc (size before relaxing)
 .rodata.genimg_get_comp_name.str1.1
                0x000000004027e478       0x14 common/built-in.o
 .rodata.genimg_get_os_id.str1.1
                0x000000004027e48c       0x14 common/built-in.o
                                          0x3 (size before relaxing)
 .rodata.genimg_get_os_name.str1.1
                0x000000004027e48c        0xb common/built-in.o
 .rodata.genimg_get_type_id.str1.1
                0x000000004027e497        0xb common/built-in.o
                                          0x6 (size before relaxing)
 .rodata.genimg_get_type_name.str1.1
                0x000000004027e497        0xe common/built-in.o
 .rodata.genimg_print_size.str1.1
                0x000000004027e4a5        0xc common/built-in.o
                                          0xe (size before relaxing)
 .rodata.genphy_update_link.str1.1
                0x000000004027e4b1       0x54 drivers/net/phy/built-in.o
                                         0x56 (size before relaxing)
 .rodata.get_block_size.str1.1
                0x000000004027e505       0x2e drivers/built-in.o
 .rodata.get_current.str1.1
                0x000000004027e505       0x15 drivers/serial/built-in.o
 .rodata.get_descriptor_len.str1.1
                0x000000004027e51a       0x64 common/built-in.o
 .rodata.get_fatent.str1.1
                0x000000004027e57e       0x22 fs/built-in.o
 .rodata.get_gpt_info.str1.1
                0x000000004027e5a0       0x21 cmd/built-in.o
 .rodata.get_imx_type.str1.1
                0x000000004027e5c1       0xc1 arch/arm/mach-imx/built-in.o
                                         0xc7 (size before relaxing)
 .rodata.get_local_var.str1.1
                0x000000004027e682        0xa common/built-in.o
                                          0x3 (size before relaxing)
 .rodata.get_phy_device_by_mask.str1.1
                0x000000004027e682       0x29 drivers/net/phy/built-in.o
 .rodata.get_reset_cause.str1.1
                0x000000004027e6ab       0x4e arch/arm/mach-imx/built-in.o
 .rodata.get_serial.str1.1
                0x000000004027e6f9        0x9 drivers/built-in.o
 .rodata.get_single_var.str1.1
                0x000000004027e6f9      0x1cf drivers/built-in.o
                                        0x219 (size before relaxing)
 .rodata.gpio_direction_input.str1.1
                0x000000004027e8c8        0xa drivers/gpio/built-in.o
 .rodata.gpio_direction_output.str1.1
                0x000000004027e8d2        0xb drivers/gpio/built-in.o
 .rodata.gpio_get_description.str1.1
                0x000000004027e8dd        0xa cmd/built-in.o
                                         0x18 (size before relaxing)
 .rodata.gpio_get_status.str1.1
                0x000000004027e8e7       0x17 drivers/gpio/built-in.o
                                         0x19 (size before relaxing)
 .rodata.gpio_regulator_ofdata_to_platdata.str1.1
                0x000000004027e8fe       0x26 drivers/power/regulator/built-in.o
                                          0xd (size before relaxing)
 .rodata.gpio_regulator_set_value.str1.1
                0x000000004027e8fe       0x26 drivers/power/regulator/built-in.o
 .rodata.gpio_request_by_name_nodev.str1.1
                0x000000004027e8fe        0xc drivers/gpio/built-in.o
 .rodata.gpio_request_tail.str1.1
                0x000000004027e90a        0x8 drivers/gpio/built-in.o
                                          0xe (size before relaxing)
 .rodata.gpt_fill_header.str1.1
                0x000000004027e912       0x24 disk/built-in.o
 .rodata.gpt_fill_pte.str1.1
                0x000000004027e936       0x5b disk/built-in.o
 .rodata.gpt_verify_partitions.str1.1
                0x000000004027e991       0xa3 disk/built-in.o
 .rodata.gzip_parse_header.str1.1
                0x000000004027ea34       0x3e lib/built-in.o
 .rodata.gzwrite.str1.1
                0x000000004027ea72      0x149 lib/built-in.o
 .rodata.gzwrite_progress.str1.1
                0x000000004027ebbb        0xb lib/built-in.o
 .rodata.gzwrite_progress_finish.str1.1
                0x000000004027ebc6       0x4e lib/built-in.o
 .rodata.hang.str1.1
                0x000000004027ec14       0x2a lib/built-in.o
 .rodata.hex_asc
                0x000000004027ec3e       0x11 lib/built-in.o
                0x000000004027ec3e                hex_asc
 .rodata.hex_dump_to_buffer.str1.1
                0x000000004027ec4f       0x1c lib/built-in.o
                                         0x1f (size before relaxing)
 .rodata.hexport_r.str1.1
                0x000000004027ec6b       0x30 lib/built-in.o
 .rodata.himport_r.str1.1
                0x000000004027ec9b       0x99 lib/built-in.o
 .rodata.i2c_chip_ofdata_to_platdata.str1.1
                0x000000004027ed34       0x16 drivers/i2c/built-in.o
                                         0x1a (size before relaxing)
 .rodata.i2c_deblock.str1.1
                0x000000004027ed4a       0x16 drivers/i2c/built-in.o
                                         0x13 (size before relaxing)
 .rodata.i2c_get_chip.str1.1
                0x000000004027ed4a       0x20 drivers/i2c/built-in.o
 .rodata.i2c_get_cur_bus.str1.1
                0x000000004027ed6a       0x15 cmd/built-in.o
 .rodata.i2c_idle_bus.str1.1
                0x000000004027ed7f       0x28 drivers/i2c/built-in.o
                                         0x30 (size before relaxing)
 .rodata.i2c_imx_stop.str1.1
                0x000000004027eda7       0x18 drivers/i2c/built-in.o
 .rodata.i2c_init_transfer.constprop.4.str1.1
                0x000000004027edbf       0x3f drivers/i2c/built-in.o
 .rodata.i2c_post_probe.str1.1
                0x000000004027edfe       0x10 drivers/i2c/built-in.o
 .rodata.i2c_uclass_init.str1.1
                0x000000004027edfe        0x4 drivers/i2c/built-in.o
 .rodata.illegal
                0x000000004027edfe        0xa lib/built-in.o
 .rodata.image_info.str1.1
                0x000000004027ee08      0x107 cmd/built-in.o
 .rodata.image_print_contents.str1.1
                0x000000004027ef0f       0xd0 common/built-in.o
                                         0xd4 (size before relaxing)
 .rodata.image_setup_libfdt.str1.1
                0x000000004027efdf       0xbc common/built-in.o
 .rodata.imx_pinctrl_probe.str1.1
                0x000000004027f09b       0x58 drivers/built-in.o
                                         0x5c (size before relaxing)
 .rodata.imx_pinctrl_set_state.str1.1
                0x000000004027f0f3       0x84 drivers/built-in.o
 .rodata.inflate.str1.1
                0x000000004027f177      0x158 lib/built-in.o
 .rodata.inflate_fast.str1.1
                0x000000004027f2cf       0x50 lib/built-in.o
 .rodata.init_baud_rate.str1.1
                0x000000004027f31f        0x9 common/built-in.o
 .rodata.init_clk_usdhc.str1.1
                0x000000004027f328       0x15 arch/arm/mach-imx/built-in.o
 .rodata.init_mmc_device.str1.1
                0x000000004027f33d       0x1a cmd/built-in.o
 .rodata.initr_env.str1.1
                0x000000004027f357       0x20 common/built-in.o
                                         0x29 (size before relaxing)
 .rodata.initr_ethaddr.str1.1
                0x000000004027f377        0x8 common/built-in.o
 .rodata.initr_mmc.str1.1
                0x000000004027f37f        0x8 common/built-in.o
 .rodata.initr_net.str1.1
                0x000000004027f387        0x8 common/built-in.o
 .rodata.insert_var_value_sub.str1.1
                0x000000004027f38f        0x6 common/built-in.o
 .rodata.ip_to_string.str1.1
                0x000000004027f395        0xc net/built-in.o
 .rodata.is_gpt_valid.str1.1
                0x000000004027f3a1       0xea disk/built-in.o
 .rodata.list_sort.str1.1
                0x000000004027f48b       0x34 lib/built-in.o
 .rodata.lists_bind_drivers.str1.1
                0x000000004027f4bf       0x1a drivers/built-in.o
 .rodata.lists_bind_fdt.str1.1
                0x000000004027f4d9       0x3f drivers/built-in.o
                                         0x4a (size before relaxing)
 .rodata.lmb_alloc_base.str1.1
                0x000000004027f518       0x34 lib/built-in.o
 .rodata.load_serial.str1.1
                0x000000004027f54c       0x65 cmd/built-in.o
 .rodata.load_serial_ymodem.str1.1
                0x000000004027f5b1       0x31 cmd/built-in.o
                                         0x35 (size before relaxing)
 .rodata.main_loop.str1.1
                0x000000004027f5e2       0x11 common/built-in.o
 .rodata.manufacturer
                0x000000004027f5f3        0x4 drivers/usb/gadget/built-in.o
 .rodata.match.str1.1
                0x000000004027f5f7       0x18 lib/built-in.o
 .rodata.match_entry.str1.1
                0x000000004027f60f       0x1b lib/built-in.o
 .rodata.match_string.str1.1
                0x000000004027f60f       0x2c lib/built-in.o
 .rodata.mdio_list_devices.str1.1
                0x000000004027f63b       0x12 common/built-in.o
                                         0x19 (size before relaxing)
 .rodata.mdio_phydev_for_ethname.str1.1
                0x000000004027f64d       0x1c common/built-in.o
 .rodata.mdio_register.str1.1
                0x000000004027f669       0x2c common/built-in.o
 .rodata.miiphy_duplex.str1.1
                0x000000004027f695       0x5a common/built-in.o
                                         0x68 (size before relaxing)
 .rodata.miiphy_get_dev_by_name.str1.1
                0x000000004027f6ef       0x13 common/built-in.o
 .rodata.miiphy_is_1000base_x.str1.1
                0x000000004027f702       0x39 common/built-in.o
 .rodata.miiphy_listdev.str1.1
                0x000000004027f73b       0x2a common/built-in.o
 .rodata.miiphy_set_current_dev.str1.1
                0x000000004027f765       0x14 common/built-in.o
 .rodata.miiphy_speed.str1.1
                0x000000004027f779       0x5b common/built-in.o
 .rodata.mmc_berase.str1.1
                0x000000004027f7d4       0x6f drivers/built-in.o
 .rodata.mmc_bind.str1.1
                0x000000004027f843        0x8 drivers/built-in.o
                                          0xc (size before relaxing)
 .rodata.mmc_bread.str1.1
                0x000000004027f84b       0x47 drivers/built-in.o
 .rodata.mmc_bwrite.str1.1
                0x000000004027f892       0x12 drivers/built-in.o
                                         0x59 (size before relaxing)
 .rodata.mmc_get_env_addr.str1.1
                0x000000004027f8a4       0x2f env/built-in.o
                                         0x35 (size before relaxing)
 .rodata.mmc_get_env_dev.str1.1
                0x000000004027f8d3        0x7 arch/arm/mach-imx/built-in.o
 .rodata.mmc_get_op_cond.str1.1
                0x000000004027f8da       0x42 drivers/built-in.o
 .rodata.mmc_hwpart_config.str1.1
                0x000000004027f91c      0x19f drivers/built-in.o
 .rodata.mmc_init.str1.1
                0x000000004027fabb       0x36 drivers/built-in.o
                                         0x3c (size before relaxing)
 .rodata.mmc_initialize.str1.1
                0x000000004027faf1       0x17 drivers/built-in.o
 .rodata.mmc_mode_name.str1.1
                0x000000004027fb08        0xd drivers/built-in.o
 .rodata.mmc_power_on.isra.2.str1.1
                0x000000004027fb15       0x1c drivers/built-in.o
 .rodata.mmc_select_mode_and_width.str1.1
                0x000000004027fb31       0x31 drivers/built-in.o
 .rodata.mmc_send_status.str1.1
                0x000000004027fb62       0x32 drivers/built-in.o
 .rodata.mmc_start_init.str1.1
                0x000000004027fb94       0x16 drivers/built-in.o
 .rodata.mod_i2c_mem.isra.6.part.7.str1.1
                0x000000004027fbaa       0x21 cmd/built-in.o
                                         0x28 (size before relaxing)
 .rodata.mod_mem.isra.2.part.3.str1.1
                0x000000004027fbcb       0x15 cmd/built-in.o
                                         0x26 (size before relaxing)
 .rodata.mtd_arg_off.str1.1
                0x000000004027fbe0       0x38 drivers/mtd/built-in.o
 .rodata.mtd_arg_off_size.str1.1
                0x000000004027fc18       0x5b drivers/mtd/built-in.o
                                         0x71 (size before relaxing)
 .rodata.multipliers
                0x000000004027fc73       0x10 drivers/built-in.o
 .rodata.mxc_get_clock.str1.1
                0x000000004027fc83       0x1a arch/arm/mach-imx/built-in.o
 .rodata.mxc_gpio_probe.str1.1
                0x000000004027fc9d        0x8 drivers/gpio/built-in.o
 .rodata.mxc_i2c_probe.str1.1
                0x000000004027fca5       0x45 drivers/i2c/built-in.o
                                         0x58 (size before relaxing)
 .rodata.names.6732
                0x000000004027fcea        0x6 lib/built-in.o
 .rodata.net_auto_load.str1.1
                0x000000004027fcf0       0x45 net/built-in.o
 .rodata.net_bcast_ethaddr
                0x000000004027fd35        0x6 net/built-in.o
                0x000000004027fd35                net_bcast_ethaddr
 .rodata.net_check_prereq.str1.1
                0x000000004027fd3b       0xbc net/built-in.o
 .rodata.net_loop.str1.1
                0x000000004027fdf7       0x29 net/built-in.o
                                         0x3b (size before relaxing)
 .rodata.net_null_ethaddr
                0x000000004027fe20        0x6 net/built-in.o
                0x000000004027fe20                net_null_ethaddr
 .rodata.net_process_received_packet.str1.1
                0x000000004027fe26       0x1d net/built-in.o
 .rodata.net_start_again.str1.1
                0x000000004027fe43        0xe net/built-in.o
                                         0x15 (size before relaxing)
 .rodata.netboot_common.str1.1
                0x000000004027fe51       0x16 cmd/built-in.o
                                         0x53 (size before relaxing)
 .rodata.nfs_handler.str1.1
                0x000000004027fe67       0x56 net/built-in.o
 .rodata.nfs_lookup_reply.str1.1
                0x000000004027febd       0x25 net/built-in.o
                                         0x27 (size before relaxing)
 .rodata.nfs_read_reply.isra.0.str1.1
                0x000000004027fee2        0x4 net/built-in.o
 .rodata.nfs_readlink_reply.str1.1
                0x000000004027fee6        0x2 net/built-in.o
 .rodata.nfs_start.str1.1
                0x000000004027fee6      0x104 net/built-in.o
                                        0x105 (size before relaxing)
 .rodata.nfs_timeout_handler.str1.1
                0x000000004027ffea       0x2a net/built-in.o
 .rodata.nxp_tmu_bind.str1.1
                0x0000000040280014        0xe drivers/built-in.o
                                         0x38 (size before relaxing)
 .rodata.nxp_tmu_get_temp.str1.1
                0x0000000040280022        0xe drivers/built-in.o
 .rodata.nxp_tmu_ofdata_to_platdata.str1.1
                0x0000000040280030       0x57 drivers/built-in.o
                                         0x60 (size before relaxing)
 .rodata.nxp_tmu_probe.str1.1
                0x0000000040280087       0x6d drivers/built-in.o
 .rodata.ofnode_pre_reloc.str1.1
                0x00000000402800f4       0x15 drivers/built-in.o
                                         0x45 (size before relaxing)
 .rodata.on_baudrate.str1.1
                0x0000000040280109       0x42 drivers/serial/built-in.o
                                         0x74 (size before relaxing)
 .rodata.on_callbacks.str1.1
                0x000000004028014b      0x105 env/built-in.o
 .rodata.on_console.str1.1
                0x0000000040280250       0x10 common/built-in.o
                                         0x27 (size before relaxing)
 .rodata.on_flags.str1.1
                0x0000000040280250       0x50 env/built-in.o
 .rodata.parse_argv.str1.1
                0x00000000402802a0        0x6 cmd/built-in.o
                                          0xd (size before relaxing)
 .rodata.parse_attr.part.0.str1.1
                0x00000000402802a6       0x1a lib/built-in.o
                                         0x23 (size before relaxing)
 .rodata.parse_stream_outer.str1.1
                0x00000000402802c0       0x4d common/built-in.o
 .rodata.parse_string_outer.str1.1
                0x000000004028030d        0x2 common/built-in.o
 .rodata.part_get_info_efi.str1.1
                0x000000004028030d        0xa disk/built-in.o
 .rodata.part_get_info_extended.str1.1
                0x000000004028030d        0xa disk/built-in.o
                                         0x11 (size before relaxing)
 .rodata.part_get_info_whole_disk.str1.1
                0x0000000040280317        0xb disk/built-in.o
                                         0x12 (size before relaxing)
 .rodata.part_print.str1.1
                0x0000000040280322       0x8e disk/built-in.o
                                         0x97 (size before relaxing)
 .rodata.part_print_dos.str1.1
                0x00000000402803b0       0x2a disk/built-in.o
 .rodata.part_print_efi.str1.1
                0x00000000402803da       0xf9 disk/built-in.o
 .rodata.part_set_generic_name.str1.1
                0x00000000402804d3        0xa disk/built-in.o
 .rodata.phy_connect.str1.1
                0x00000000402804dd       0x23 drivers/net/phy/built-in.o
 .rodata.phy_connect_dev.str1.1
                0x0000000040280500       0x2f drivers/net/phy/built-in.o
 .rodata.phy_reset.str1.1
                0x000000004028052f       0x15 drivers/net/phy/built-in.o
 .rodata.pinconfig_post_bind.str1.1
                0x0000000040280544        0xa drivers/built-in.o
                                         0x15 (size before relaxing)
 .rodata.pinctrl_select_state.str1.1
                0x000000004028054e       0x31 drivers/built-in.o
 .rodata.ping_start.str1.1
                0x000000004028057f       0x11 net/built-in.o
 .rodata.prepare_access.str1.1
                0x000000004028057f       0x22 drivers/built-in.o
 .rodata.prepare_ring.str1.1
                0x00000000402805a1       0xa0 drivers/usb/host/built-in.o
 .rodata.print_buffer.str1.1
                0x0000000040280641        0x8 lib/built-in.o
                                         0x19 (size before relaxing)
 .rodata.print_cpuinfo.str1.1
                0x0000000040280649       0xe7 arch/arm/mach-imx/built-in.o
                                        0x105 (size before relaxing)
 .rodata.print_data.str1.1
                0x0000000040280730       0x27 cmd/built-in.o
                                         0x32 (size before relaxing)
 .rodata.print_freq.str1.1
                0x0000000040280757       0x1b lib/built-in.o
 .rodata.print_gpt_info.str1.1
                0x0000000040280772       0x62 cmd/built-in.o
                                         0x64 (size before relaxing)
 .rodata.print_hex_dump.str1.1
                0x00000000402807d4       0x16 lib/built-in.o
                                         0x1c (size before relaxing)
 .rodata.print_jrnl_status.str1.1
                0x00000000402807ea       0x34 fs/built-in.o
 .rodata.print_mmc_devices.str1.1
                0x000000004028081e       0x12 drivers/built-in.o
                                         0x1c (size before relaxing)
 .rodata.print_num.str1.1
                0x0000000040280830       0x10 cmd/built-in.o
 .rodata.print_partition_extended.str1.1
                0x0000000040280840       0x83 disk/built-in.o
                                         0x84 (size before relaxing)
 .rodata.print_size.str1.1
                0x00000000402808c3       0x15 lib/built-in.o
 .rodata.process_flash_blkdev.str1.1
                0x00000000402808d8      0x25b drivers/built-in.o
                                        0x26f (size before relaxing)
 .rodata.product
                0x0000000040280b33       0x14 drivers/usb/gadget/built-in.o
 .rodata.put_ext4.str1.1
                0x0000000040280b47       0x42 fs/built-in.o
 .rodata.quantifier.str1.1
                0x0000000040280b89       0x17 lib/built-in.o
 .rodata.read_allocated_block.str1.1
                0x0000000040280ba0      0x240 fs/built-in.o
 .rodata.read_bootsectandvi.str1.1
                0x0000000040280de0       0x1b fs/built-in.o
 .rodata.realloc.str1.1
                0x0000000040280dfb       0x25 common/built-in.o
 .rodata.record_transfer_result.str1.1
                0x0000000040280e20       0x1d drivers/usb/host/built-in.o
                                         0x36 (size before relaxing)
 .rodata.regex_callback.str1.1
                0x0000000040280e3d        0x5 env/built-in.o
                                         0x20 (size before relaxing)
 .rodata.regex_sub.part.1.str1.1
                0x0000000040280e42       0xbd cmd/built-in.o
 .rodata.regulator_post_bind.str1.1
                0x0000000040280eff        0xf drivers/power/regulator/built-in.o
 .rodata.regulator_pre_probe.str1.1
                0x0000000040280eff       0x99 drivers/power/regulator/built-in.o
 .rodata.run_list_real.str1.1
                0x0000000040280f98       0x45 common/built-in.o
                                         0x4b (size before relaxing)
 .rodata.run_ucmd.str1.1
                0x0000000040280fdd       0x25 drivers/built-in.o
 .rodata.rx_handler_command.str1.1
                0x0000000040281002       0x10 drivers/usb/gadget/built-in.o
                                         0x1a (size before relaxing)
 .rodata.rx_handler_dl_image.str1.1
                0x0000000040281012       0x10 drivers/usb/gadget/built-in.o
 .rodata.search_dir.str1.1
                0x0000000040281022       0x1b fs/built-in.o
 .rodata.set_contents.str1.1
                0x000000004028103d       0x3b fs/built-in.o
 .rodata.set_default_env.str1.1
                0x0000000040281078       0x5f env/built-in.o
 .rodata.set_gpt_info.isra.0.str1.1
                0x00000000402810d7       0x69 cmd/built-in.o
                                         0x80 (size before relaxing)
 .rodata.set_local_var.str1.1
                0x0000000040281140       0x59 common/built-in.o
 .rodata.set_working_fdt_addr.str1.1
                0x0000000040281199        0x8 cmd/built-in.o
 .rodata.setup_pgtables.str1.1
                0x00000000402811a1       0x2d arch/arm/cpu/armv8/built-in.o
 .rodata.sha1_padding
                0x00000000402811ce       0x40 lib/built-in.o
 .rodata.show_board_info.str1.1
                0x000000004028120e       0x11 common/built-in.o
 .rodata.show_bus.str1.1
                0x000000004028121f       0x3f cmd/built-in.o
                                         0x41 (size before relaxing)
 .rodata.show_devices.str1.1
                0x000000004028125e       0x33 drivers/built-in.o
                                         0x3c (size before relaxing)
 .rodata.show_dram_config.str1.1
                0x0000000040281291        0x1 common/built-in.o
 .rodata.show_pinmux.str1.1
                0x0000000040281291       0x6d cmd/built-in.o
 .rodata.show_regs.str1.1
                0x00000000402812fe       0x57 arch/arm/lib/built-in.o
                                         0x59 (size before relaxing)
 .rodata.simple_bus_post_bind.str1.1
                0x0000000040281355        0x7 drivers/built-in.o
 .rodata.sleep_thread.isra.17.str1.1
                0x0000000040281355        0xc drivers/usb/gadget/built-in.o
 .rodata.smbios_write_type0.str1.1
                0x0000000040281361        0xb lib/built-in.o
                                         0x31 (size before relaxing)
 .rodata.smbios_write_type1.str1.1
                0x000000004028136c        0x8 lib/built-in.o
 .rodata.smbios_write_type2.str1.1
                0x000000004028136c        0xb lib/built-in.o
 .rodata.smbios_write_type3.str1.1
                0x0000000040281377        0xa lib/built-in.o
 .rodata.smbios_write_type4.str1.1
                0x0000000040281381        0x8 lib/built-in.o
 .rodata.source.str1.1
                0x0000000040281381      0x106 cmd/built-in.o
                                        0x124 (size before relaxing)
 .rodata.spi_flash_probe_bus_cs.str1.1
                0x0000000040281487       0x1e drivers/mtd/spi/built-in.o
 .rodata.spi_flash_std_erase.str1.1
                0x00000000402814a5       0x34 drivers/mtd/spi/built-in.o
 .rodata.spi_flash_std_probe.str1.1
                0x00000000402814d9       0x1c drivers/mtd/spi/built-in.o
 .rodata.spi_get_bus_and_cs.str1.1
                0x00000000402814f5       0x64 drivers/spi/built-in.o
 .rodata.spi_nor_scan.str1.1
                0x0000000040281559       0xa4 drivers/mtd/spi/built-in.o
                                         0xa7 (size before relaxing)
 .rodata.spi_nor_wait_till_ready_with_timeout.constprop.10.str1.1
                0x00000000402815fd       0x1b drivers/mtd/spi/built-in.o
 .rodata.spi_post_probe.str1.1
                0x0000000040281618       0x12 drivers/spi/built-in.o
 .rodata.spi_set_speed_mode.str1.1
                0x000000004028162a       0x35 drivers/spi/built-in.o
 .rodata.spi_slave_ofdata_to_platdata.str1.1
                0x000000004028165f       0xa0 drivers/spi/built-in.o
                                         0xa4 (size before relaxing)
 .rodata.split_block.str1.1
                0x00000000402816ff       0x74 arch/arm/cpu/armv8/built-in.o
 .rodata.split_filename.str1.1
                0x0000000040281773        0x2 fs/built-in.o
 .rodata.stdio_add_devices.str1.1
                0x0000000040281773        0x7 common/built-in.o
 .rodata.stdio_print_current_devices.str1.1
                0x0000000040281773       0x70 common/built-in.o
                                         0x74 (size before relaxing)
 .rodata.store_char_in_data.str1.1
                0x00000000402817e3       0x1f lib/built-in.o
 .rodata.str1.1
                0x0000000040281802      0x11a arch/arm/mach-imx/built-in.o
                                        0x122 (size before relaxing)
 .rodata.str1.1
                0x000000004028191c     0x4195 cmd/built-in.o
                                       0x444a (size before relaxing)
 .rodata.str1.1
                0x0000000040285ab1      0x8c5 common/built-in.o
                                        0x942 (size before relaxing)
 .rodata.str1.1
                0x0000000040286376       0x1b disk/built-in.o
                                         0x1e (size before relaxing)
 .rodata.str1.1
                0x0000000040286391      0x2b8 drivers/built-in.o
                                        0x310 (size before relaxing)
 .rodata.str1.1
                0x0000000040286649       0x24 drivers/gpio/built-in.o
                                         0x3e (size before relaxing)
 .rodata.str1.1
                0x000000004028666d       0x30 drivers/i2c/built-in.o
 .rodata.str1.1
                0x000000004028669d      0x1e3 drivers/mtd/spi/built-in.o
                                        0x1f1 (size before relaxing)
 .rodata.str1.1
                0x0000000040286880       0x6d drivers/net/built-in.o
 .rodata.str1.1
                0x00000000402868ed       0x9d drivers/net/phy/built-in.o
                                         0xb6 (size before relaxing)
 .rodata.str1.1
                0x000000004028698a        0x5 drivers/power/pmic/built-in.o
 .rodata.str1.1
                0x000000004028698f       0x3e drivers/power/regulator/built-in.o
                                         0x48 (size before relaxing)
 .rodata.str1.1
                0x00000000402869cd        0x9 drivers/serial/built-in.o
 .rodata.str1.1
                0x00000000402869cd       0x74 drivers/spi/built-in.o
                                         0x78 (size before relaxing)
 .rodata.str1.1
                0x0000000040286a41       0x39 drivers/usb/common/built-in.o
                                         0x52 (size before relaxing)
 .rodata.str1.1
                0x0000000040286a7a       0x26 drivers/usb/gadget/built-in.o
 .rodata.str1.1
                0x0000000040286a7a        0x4 drivers/usb/gadget/udc/built-in.o
 .rodata.str1.1
                0x0000000040286a7a       0x45 drivers/usb/host/built-in.o
                                         0x49 (size before relaxing)
 .rodata.str1.1
                0x0000000040286abf      0x105 env/built-in.o
                                         0x14 (size before relaxing)
 .rodata.str1.1
                0x0000000040286abf       0x10 fs/built-in.o
                                         0x15 (size before relaxing)
 .rodata.str1.1
                0x0000000040286acf      0x4a2 lib/built-in.o
                                        0x4b4 (size before relaxing)
 .rodata.str1.1
                0x0000000040286f71        0x6 net/built-in.o
                                         0x35 (size before relaxing)
 .rodata.string.str1.1
                0x0000000040286f77        0x7 lib/built-in.o
 .rodata.substitute.str1.1
                0x0000000040286f7e       0x28 cmd/built-in.o
 .rodata.syntax_err.str1.1
                0x0000000040286fa6        0xe common/built-in.o
 .rodata.tab_seq
                0x0000000040286fb4        0x9 common/built-in.o
 .rodata.test_block_type.str1.1
                0x0000000040286fbd        0xa disk/built-in.o
 .rodata.tftp_handler.str1.1
                0x0000000040286fc7       0x9a net/built-in.o
                                         0xa8 (size before relaxing)
 .rodata.tftp_send.str1.1
                0x0000000040287061       0x36 net/built-in.o
                                         0x42 (size before relaxing)
 .rodata.tftp_start.str1.1
                0x0000000040287097       0xe8 net/built-in.o
                                        0x181 (size before relaxing)
 .rodata.tftp_timeout_handler.str1.1
                0x000000004028717f       0x2a net/built-in.o
                                         0x2d (size before relaxing)
 .rodata.tuning_blk_pattern_4bit
                0x00000000402871a9       0x40 drivers/built-in.o
 .rodata.tuning_blk_pattern_8bit
                0x00000000402871e9       0x80 drivers/built-in.o
 .rodata.u_boot_hush_start.str1.1
                0x0000000040287269       0x12 common/built-in.o
 .rodata.uclass_resolve_seq.str1.1
                0x000000004028727b       0x27 drivers/built-in.o
 .rodata.upload.str1.1
                0x00000000402872a2       0x20 drivers/built-in.o
                                         0x26 (size before relaxing)
 .rodata.us_direction
                0x00000000402872c2       0x20 common/built-in.o
 .rodata.usb_child_post_bind.str1.1
                0x00000000402872e2       0x25 drivers/usb/host/built-in.o
 .rodata.usb_composite_register.str1.1
                0x0000000040287307        0xa drivers/usb/gadget/built-in.o
 .rodata.usb_del_gadget_udc.str1.1
                0x0000000040287311       0x18 drivers/usb/gadget/udc/built-in.o
 .rodata.usb_display_class_sub.str1.1
                0x0000000040287329       0xb6 cmd/built-in.o
                                         0xbc (size before relaxing)
 .rodata.usb_display_config.str1.1
                0x00000000402873df      0x10d cmd/built-in.o
                                        0x118 (size before relaxing)
 .rodata.usb_display_desc.str1.1
                0x00000000402874ec       0xac cmd/built-in.o
                                         0xae (size before relaxing)
 .rodata.usb_display_string.str1.1
                0x0000000040287598        0xd cmd/built-in.o
 .rodata.usb_ep_autoconfig.str1.1
                0x00000000402875a5       0x13 drivers/usb/gadget/built-in.o
                                         0x1f (size before relaxing)
 .rodata.usb_gadget_probe_driver.str1.1
                0x00000000402875b8       0x38 drivers/usb/gadget/udc/built-in.o
 .rodata.usb_get_class_desc.str1.1
                0x00000000402875f0       0x64 cmd/built-in.o
                                         0x65 (size before relaxing)
 .rodata.usb_get_configuration_len.str1.1
                0x0000000040287654       0x58 common/built-in.o
 .rodata.usb_get_dr_mode.str1.1
                0x00000000402876ac       0x1f drivers/usb/common/built-in.o
 .rodata.usb_hub_configure.str1.1
                0x00000000402876cb       0x5f common/built-in.o
 .rodata.usb_hub_port_connect_change.str1.1
                0x000000004028772a       0x18 common/built-in.o
 .rodata.usb_init.str1.1
                0x0000000040287742       0x7e drivers/usb/host/built-in.o
 .rodata.usb_mass_storage_probe.str1.1
                0x00000000402877c0       0x16 common/built-in.o
 .rodata.usb_scan_bus.isra.3.str1.1
                0x00000000402877d6       0x4d drivers/usb/host/built-in.o
                                         0x5f (size before relaxing)
 .rodata.usb_scan_device.str1.1
                0x0000000040287823       0x2a drivers/usb/host/built-in.o
 .rodata.usb_select_config.str1.1
                0x000000004028784d      0x220 common/built-in.o
 .rodata.usb_set_interface.str1.1
                0x0000000040287a6d       0x1f common/built-in.o
 .rodata.usb_setup_descriptor.str1.1
                0x0000000040287a8c       0x1d common/built-in.o
 .rodata.usb_setup_device.str1.1
                0x0000000040287aa9       0x68 common/built-in.o
 .rodata.usb_show_tree_graph.str1.1
                0x0000000040287b11       0x2b cmd/built-in.o
                                         0x3a (size before relaxing)
 .rodata.usb_stor_CBI_get_status.isra.2.str1.1
                0x0000000040287b3c       0x1f common/built-in.o
 .rodata.usb_stor_CB_transport.str1.1
                0x0000000040287b5b       0x6e common/built-in.o
 .rodata.usb_stor_get_info.str1.1
                0x0000000040287bc9       0x5d common/built-in.o
 .rodata.usb_stor_info.str1.1
                0x0000000040287c26       0x32 common/built-in.o
                                         0x40 (size before relaxing)
 .rodata.usb_stor_scan.str1.1
                0x0000000040287c58       0x48 common/built-in.o
 .rodata.usb_storage_probe.str1.1
                0x0000000040287ca0       0x5c common/built-in.o
 .rodata.uuid_bin_to_str.str1.1
                0x0000000040287cfc        0x5 lib/built-in.o
 .rodata.valid_elf_image.str1.1
                0x0000000040287cfc       0x52 cmd/built-in.o
 .rodata.validate_gpt_header.str1.1
                0x0000000040287d4e       0xe1 disk/built-in.o
 .rodata.var_complete.str1.1
                0x0000000040287e2f        0x1 common/built-in.o
 .rodata.vendor_id.8976
                0x0000000040287e2f        0x9 drivers/usb/gadget/built-in.o
 .rodata.version_string
                0x0000000040287e38       0x45 cmd/built-in.o
                0x0000000040287e38                version_string
 .rodata.wait_for_sr_state.str1.1
                0x0000000040287e7d       0x4c drivers/i2c/built-in.o
 .rodata.write_backup_gpt.str1.1
                0x0000000040287ec9       0x70 drivers/built-in.o
                                         0x74 (size before relaxing)
 .rodata.write_gpt_table.str1.1
                0x0000000040287f39       0x55 disk/built-in.o
 .rodata.write_mbr_and_gpt_partitions.str1.1
                0x0000000040287f8e       0x7c disk/built-in.o
 .rodata.write_smbios_table.str1.1
                0x000000004028800a       0x38 lib/built-in.o
 .rodata.write_sparse_image.str1.1
                0x0000000040288042      0x1f9 lib/built-in.o
 .rodata.xhci_alloc_device.str1.1
                0x000000004028823b       0x34 drivers/usb/host/built-in.o
 .rodata.xhci_alloc_virt_device.str1.1
                0x000000004028826f       0xa5 drivers/usb/host/built-in.o
 .rodata.xhci_configure_endpoints.str1.1
                0x0000000040288314       0x6c drivers/usb/host/built-in.o
                                         0x85 (size before relaxing)
 .rodata.xhci_imx8m_probe.str1.1
                0x0000000040288380       0x4b drivers/usb/host/built-in.o
 .rodata.xhci_mem_init.str1.1
                0x00000000402883cb       0x19 drivers/usb/host/built-in.o
 .rodata.xhci_register.str1.1
                0x00000000402883e4       0x44 drivers/usb/host/built-in.o
 .rodata.xhci_reset.str1.1
                0x0000000040288428       0x28 drivers/usb/host/built-in.o
 .rodata.xhci_ring_free.str1.1
                0x0000000040288450       0x1c drivers/usb/host/built-in.o
                                         0x35 (size before relaxing)
 .rodata.xhci_submit_bulk_msg.str1.1
                0x000000004028846c       0x19 drivers/usb/host/built-in.o
 .rodata.xhci_submit_control_msg.str1.1
                0x0000000040288485      0x185 drivers/usb/host/built-in.o
 .rodata.xhci_submit_int_msg.str1.1
                0x000000004028860a       0x1e drivers/usb/host/built-in.o
 .rodata.xhci_wait_for_event.str1.1
                0x0000000040288628       0x70 drivers/usb/host/built-in.o
 .rodata.xmalloc.str1.1
                0x0000000040288698       0x1e common/built-in.o
 .rodata.xyzModem_error.str1.1
                0x00000000402886b6        0xe common/built-in.o
 .rodata.xyzModem_stream_close.str1.1
                0x00000000402886c4       0x47 common/built-in.o
                                         0x4b (size before relaxing)
 .rodata.xyzModem_stream_open.str1.1
                0x000000004028870b        0x2 common/built-in.o

.hash           0x0000000040288710       0x18
 .hash          0x0000000040288710       0x18 arch/arm/cpu/armv8/start.o
                0x0000000040288728                . = ALIGN (0x8)

.data           0x0000000040288728     0x52d0
 *(.data*)
 .data.rel.ro   0x0000000040288728        0x0 arch/arm/cpu/armv8/start.o
 .data.reset_cause
                0x0000000040288728        0x4 arch/arm/mach-imx/built-in.o
 .data.root_array
                0x000000004028872c      0x744 arch/arm/mach-imx/built-in.o
 .data.imx8m_mem_map
                0x0000000040288e70       0xe0 arch/arm/mach-imx/built-in.o
 .data.mem_map  0x0000000040288f50        0x8 arch/arm/mach-imx/built-in.o
                0x0000000040288f50                mem_map
 .data.dwc3_device_data
                0x0000000040288f58       0x58 board/freescale/imx8mq_evk/built-in.o
 .data.bootm_help_text
                0x0000000040288fb0      0x4cf cmd/built-in.o
 *fill*         0x000000004028947f        0x1 
 .data.cmd_bootm_sub
                0x0000000040289480      0x1f8 cmd/built-in.o
 .data.source_help_text
                0x0000000040289678       0xac cmd/built-in.o
 *fill*         0x0000000040289724        0x4 
 .data.cmd_blkc_sub
                0x0000000040289728       0x70 cmd/built-in.o
 .data.bootefi_help_text
                0x0000000040289798      0x188 cmd/built-in.o
 .data.booti_help_text
                0x0000000040289920      0x1e1 cmd/built-in.o
 *fill*         0x0000000040289b01        0x7 
 .data.test_commands
                0x0000000040289b08       0xa8 cmd/built-in.o
 .data.fdt_help_text
                0x0000000040289bb0      0x6a7 cmd/built-in.o
 .data.root.6754
                0x000000004028a257        0x2 cmd/built-in.o
 .data.tabs.6838
                0x000000004028a259       0x21 cmd/built-in.o
 *fill*         0x000000004028a27a        0x6 
 .data.cmd_i2c_sub
                0x000000004028a280      0x348 cmd/built-in.o
 .data.i2c_dp_last_length
                0x000000004028a5c8        0x4 cmd/built-in.o
 .data.i2c_help_text
                0x000000004028a5cc      0x3ed cmd/built-in.o
 *fill*         0x000000004028a9b9        0x3 
 .data.do_echo  0x000000004028a9bc        0x4 cmd/built-in.o
 .data.dp_last_length
                0x000000004028a9c0        0x8 cmd/built-in.o
 .data.cmd_mmc  0x000000004028a9c8      0x310 cmd/built-in.o
 .data.curr_device
                0x000000004028acd8        0x4 cmd/built-in.o
 *fill*         0x000000004028acdc        0x4 
 .data.pinmux_subcmd
                0x000000004028ace0       0xa8 cmd/built-in.o
 .data.usb_stor_curr_dev
                0x000000004028ad88        0x4 cmd/built-in.o
 .data.fastboot_help_text
                0x000000004028ad8c       0xac cmd/built-in.o
 .data.imgextract_help_text
                0x000000004028ae38       0xb2 cmd/built-in.o
 *fill*         0x000000004028aeea        0x6 
 .data.disk_partitions
                0x000000004028aef0       0x10 cmd/built-in.o
 .data.subcmd   0x000000004028af00      0x1f8 cmd/built-in.o
 .data.cmd_env_sub
                0x000000004028b0f8      0x1c0 cmd/built-in.o
 .data.env_help_text
                0x000000004028b2b8      0x23f cmd/built-in.o
 *fill*         0x000000004028b4f7        0x1 
 .data.env_id   0x000000004028b4f8        0x4 cmd/built-in.o
 *fill*         0x000000004028b4fc        0x4 
 .data.reserved_list
                0x000000004028b500      0x108 common/built-in.o
 .data.init_sequence_r
                0x000000004028b608      0x100 common/built-in.o
 .data.of_busses
                0x000000004028b708       0x30 common/built-in.o
 .data.usb_scan_list
                0x000000004028b738       0x10 common/built-in.o
 .data.hist_cur
                0x000000004028b748        0x4 common/built-in.o
 *fill*         0x000000004028b74c        0x4 
 .data.av_      0x000000004028b750      0x810 common/built-in.o
 .data.sbrk_base
                0x000000004028bf60        0x8 common/built-in.o
 .data.trim_threshold
                0x000000004028bf68        0x8 common/built-in.o
 .data.load_addr
                0x000000004028bf70        0x8 common/built-in.o
                0x000000004028bf70                load_addr
 .data.stdio_names
                0x000000004028bf78       0x18 common/built-in.o
                0x000000004028bf78                stdio_names
 .data._stats   0x000000004028bf90       0x14 drivers/built-in.o
 *fill*         0x000000004028bfa4        0x4 
 .data.block_cache
                0x000000004028bfa8       0x10 drivers/built-in.o
 .data.fastboot_devinfo
                0x000000004028bfb8        0x2 drivers/built-in.o
                0x000000004028bfb8                fastboot_devinfo
 *fill*         0x000000004028bfba        0x6 
 .data.fastboot_common_var
                0x000000004028bfc0       0x68 drivers/built-in.o
                0x000000004028bfc0                fastboot_common_var
 .data.usdhc_imx7d_data
                0x000000004028c028        0x8 drivers/built-in.o
 .data.usdhc_imx8x_imx8m_data
                0x000000004028c030        0x8 drivers/built-in.o
 .data.genphy_driver
                0x000000004028c038       0x58 drivers/net/phy/built-in.o
 .data.phy_drivers
                0x000000004028c090       0x10 drivers/net/phy/built-in.o
 .data.AR8021_driver
                0x000000004028c0a0       0x58 drivers/net/phy/built-in.o
 .data.AR8031_driver
                0x000000004028c0f8       0x58 drivers/net/phy/built-in.o
 .data.AR8035_driver
                0x000000004028c150       0x58 drivers/net/phy/built-in.o
 .data.mxc_serial_drv
                0x000000004028c1a8       0x50 drivers/serial/built-in.o
 .data.one_time_rx_line_always_low_workaround_needed
                0x000000004028c1f8        0x4 drivers/serial/built-in.o
 *fill*         0x000000004028c1fc        0x4 
 .data.dwc3_list
                0x000000004028c200       0x10 drivers/usb/dwc3/built-in.o
 .data.dwc3_gadget_ep0_desc
                0x000000004028c210        0x9 drivers/usb/dwc3/built-in.o
 *fill*         0x000000004028c219        0x7 
 .data.composite_driver
                0x000000004028c220       0x48 drivers/usb/gadget/built-in.o
 .data.device_desc
                0x000000004028c268       0x12 drivers/usb/gadget/built-in.o
 *fill*         0x000000004028c27a        0x6 
 .data.g_dnl_composite_strings
                0x000000004028c280       0x10 drivers/usb/gadget/built-in.o
 .data.g_dnl_driver
                0x000000004028c290       0x48 drivers/usb/gadget/built-in.o
 .data.g_dnl_string_defs
                0x000000004028c2d8       0x40 drivers/usb/gadget/built-in.o
 .data.g_dnl_string_tab
                0x000000004028c318       0x10 drivers/usb/gadget/built-in.o
 .data.qw_sign_buf
                0x000000004028c328        0x7 drivers/usb/gadget/built-in.o
 .data.fsg_fs_bulk_in_desc
                0x000000004028c32f        0x9 drivers/usb/gadget/built-in.o
 .data.fsg_fs_bulk_out_desc
                0x000000004028c338        0x9 drivers/usb/gadget/built-in.o
 *fill*         0x000000004028c341        0x7 
 .data.fsg_fs_function
                0x000000004028c348       0x20 drivers/usb/gadget/built-in.o
 .data.fsg_hs_bulk_in_desc
                0x000000004028c368        0x9 drivers/usb/gadget/built-in.o
 .data.fsg_hs_bulk_out_desc
                0x000000004028c371        0x9 drivers/usb/gadget/built-in.o
 *fill*         0x000000004028c37a        0x6 
 .data.fsg_hs_function
                0x000000004028c380       0x20 drivers/usb/gadget/built-in.o
 .data.fsg_intf_desc
                0x000000004028c3a0        0x9 drivers/usb/gadget/built-in.o
 *fill*         0x000000004028c3a9        0x7 
 .data.fsg_strings
                0x000000004028c3b0       0x20 drivers/usb/gadget/built-in.o
 .data.fsg_strings_array
                0x000000004028c3d0       0x10 drivers/usb/gadget/built-in.o
 .data.fsg_stringtab
                0x000000004028c3e0       0x10 drivers/usb/gadget/built-in.o
 .data.fastboot_string_defs
                0x000000004028c3f0       0x20 drivers/usb/gadget/built-in.o
 .data.fastboot_strings
                0x000000004028c410       0x10 drivers/usb/gadget/built-in.o
 .data.fb_cid   0x000000004028c420       0x10 drivers/usb/gadget/built-in.o
 .data.fb_ext_prop
                0x000000004028c430       0x30 drivers/usb/gadget/built-in.o
 .data.fb_ext_prop_data
                0x000000004028c460       0x27 drivers/usb/gadget/built-in.o
 .data.fb_ext_prop_name
                0x000000004028c487       0x14 drivers/usb/gadget/built-in.o
 *fill*         0x000000004028c49b        0x5 
 .data.fb_fs_function
                0x000000004028c4a0       0x18 drivers/usb/gadget/built-in.o
 .data.fb_hs_function
                0x000000004028c4b8       0x20 drivers/usb/gadget/built-in.o
 .data.fb_os_desc
                0x000000004028c4d8       0x20 drivers/usb/gadget/built-in.o
 .data.fb_os_desc_table
                0x000000004028c4f8       0x10 drivers/usb/gadget/built-in.o
 .data.fb_ss_bulk_comp_desc
                0x000000004028c508        0x6 drivers/usb/gadget/built-in.o
 *fill*         0x000000004028c50e        0x2 
 .data.fb_ss_function
                0x000000004028c510       0x30 drivers/usb/gadget/built-in.o
 .data.fs_ep_in
                0x000000004028c540        0x9 drivers/usb/gadget/built-in.o
 .data.fs_ep_out
                0x000000004028c549        0x9 drivers/usb/gadget/built-in.o
 .data.hs_ep_in
                0x000000004028c552        0x9 drivers/usb/gadget/built-in.o
 .data.hs_ep_out
                0x000000004028c55b        0x9 drivers/usb/gadget/built-in.o
 .data.interface_desc
                0x000000004028c564        0x9 drivers/usb/gadget/built-in.o
 .data.ss_ep_in
                0x000000004028c56d        0x9 drivers/usb/gadget/built-in.o
 .data.ss_ep_out
                0x000000004028c576        0x9 drivers/usb/gadget/built-in.o
 *fill*         0x000000004028c57f        0x1 
 .data.stringtab_fastboot
                0x000000004028c580       0x10 drivers/usb/gadget/built-in.o
 .data.udc_list
                0x000000004028c590       0x10 drivers/usb/gadget/udc/built-in.o
 .data.descriptor
                0x000000004028c5a0       0x3f drivers/usb/host/built-in.o
 *fill*         0x000000004028c5df        0x1 
 .data.xhci_usb_ops
                0x000000004028c5e0       0x50 drivers/usb/host/built-in.o
                0x000000004028c5e0                xhci_usb_ops
 .data.env_htab
                0x000000004028c630       0x18 env/built-in.o
                0x000000004028c630                env_htab
 .data.first_call
                0x000000004028c648        0x8 env/built-in.o
 .data.fstypes  0x000000004028c650      0x180 fs/built-in.o
 .data.ext4fs_indir1_blkno
                0x000000004028c7d0        0x4 fs/built-in.o
                0x000000004028c7d0                ext4fs_indir1_blkno
 .data.ext4fs_indir2_blkno
                0x000000004028c7d4        0x4 fs/built-in.o
                0x000000004028c7d4                ext4fs_indir2_blkno
 .data.ext4fs_indir3_blkno
                0x000000004028c7d8        0x4 fs/built-in.o
                0x000000004028c7d8                ext4fs_indir3_blkno
 .data.prev_bg_bitmap_index.7356
                0x000000004028c7dc        0x4 fs/built-in.o
 .data.prev_inode_bitmap_index.7380
                0x000000004028c7e0        0x4 fs/built-in.o
 .data.prev_bg_bmap_idx.7044
                0x000000004028c7e4        0x4 fs/built-in.o
 .data.prev_bg_bmap_idx.7059
                0x000000004028c7e8        0x4 fs/built-in.o
 .data.prev_bg_bmap_idx.7081
                0x000000004028c7ec        0x4 fs/built-in.o
 .data.prev_bg_bmap_idx.7116
                0x000000004028c7f0        0x4 fs/built-in.o
 .data.first_node
                0x000000004028c7f4        0x4 fs/built-in.o
 .data.efi_boot_services
                0x000000004028c7f8      0x178 lib/built-in.o
 .data.efi_events
                0x000000004028c970       0x10 lib/built-in.o
                0x000000004028c970                efi_events
 .data.efi_obj_list
                0x000000004028c980       0x10 lib/built-in.o
                0x000000004028c980                efi_obj_list
 .data.efi_tpl  0x000000004028c990        0x8 lib/built-in.o
 .data.entry_count
                0x000000004028c998        0x4 lib/built-in.o
 *fill*         0x000000004028c99c        0x4 
 .data.cin_notify_functions
                0x000000004028c9a0       0x10 lib/built-in.o
 .data.efi_con_in
                0x000000004028c9b0       0x18 lib/built-in.o
                0x000000004028c9b0                efi_con_in
 .data.efi_con_in_ex
                0x000000004028c9c8       0x30 lib/built-in.o
 .data.efi_con_mode
                0x000000004028c9f8       0x18 lib/built-in.o
 .data.efi_con_out
                0x000000004028ca10       0x50 lib/built-in.o
                0x000000004028ca10                efi_con_out
 .data.efi_cout_modes
                0x000000004028ca60       0x48 lib/built-in.o
 .data.efi_mem  0x000000004028caa8       0x10 lib/built-in.o
                0x000000004028caa8                efi_mem
 .data.efi_obj_list_initialized
                0x000000004028cab8        0x8 lib/built-in.o
 .data.capitalization_table
                0x000000004028cac0      0xed0 lib/built-in.o
 .data.sha256_padding
                0x000000004028d990       0x40 lib/built-in.o
 .data.y        0x000000004028d9d0        0x4 lib/built-in.o
 .data.first_call.6908
                0x000000004028d9d4        0x4 net/built-in.o
 .data.net_native_vlan
                0x000000004028d9d8        0x2 net/built-in.o
                0x000000004028d9d8                net_native_vlan
 .data.net_our_vlan
                0x000000004028d9da        0x2 net/built-in.o
                0x000000004028d9da                net_our_vlan
 .data.nfs_offset
                0x000000004028d9dc        0x4 net/built-in.o
 .data.supported_nfs_versions
                0x000000004028d9e0        0x1 net/built-in.o
 *fill*         0x000000004028d9e1        0x1 
 .data.tftp_block_size
                0x000000004028d9e2        0x2 net/built-in.o
 .data.tftp_block_size_option
                0x000000004028d9e4        0x2 net/built-in.o
 *fill*         0x000000004028d9e6        0x2 
 .data.tftp_timeout_count_max
                0x000000004028d9e8        0x4 net/built-in.o
                0x000000004028d9e8                tftp_timeout_count_max
 .data.timeout_count_max
                0x000000004028d9ec        0x4 net/built-in.o
 .data.timeout_ms
                0x000000004028d9f0        0x8 net/built-in.o

.got            0x000000004028d9f8        0x8
 .got           0x000000004028d9f8        0x8 arch/arm/cpu/armv8/start.o
                0x000000004028d9f8                _GLOBAL_OFFSET_TABLE_

.got.plt        0x000000004028da00       0x18
 .got.plt       0x000000004028da00       0x18 arch/arm/cpu/armv8/start.o
                0x000000004028da18                . = ALIGN (0x8)
                0x000000004028da18                . = .
                0x000000004028da18                . = ALIGN (0x8)

.u_boot_list    0x000000004028da18     0x2dd8
 *(SORT_BY_NAME(.u_boot_list*))
 .u_boot_list_2_cmd_1
                0x000000004028da18        0x0 cmd/built-in.o
 .u_boot_list_2_cmd_1
                0x000000004028da18        0x0 common/built-in.o
 .u_boot_list_2_cmd_2_base
                0x000000004028da18       0x38 cmd/built-in.o
                0x000000004028da18                _u_boot_list_2_cmd_2_base
 .u_boot_list_2_cmd_2_bdinfo
                0x000000004028da50       0x38 cmd/built-in.o
                0x000000004028da50                _u_boot_list_2_cmd_2_bdinfo
 .u_boot_list_2_cmd_2_blkcache
                0x000000004028da88       0x38 cmd/built-in.o
                0x000000004028da88                _u_boot_list_2_cmd_2_blkcache
 .u_boot_list_2_cmd_2_boot
                0x000000004028dac0       0x38 cmd/built-in.o
                0x000000004028dac0                _u_boot_list_2_cmd_2_boot
 .u_boot_list_2_cmd_2_bootaux
                0x000000004028daf8       0x38 arch/arm/mach-imx/built-in.o
                0x000000004028daf8                _u_boot_list_2_cmd_2_bootaux
 .u_boot_list_2_cmd_2_bootd
                0x000000004028db30       0x38 cmd/built-in.o
                0x000000004028db30                _u_boot_list_2_cmd_2_bootd
 .u_boot_list_2_cmd_2_bootefi
                0x000000004028db68       0x38 cmd/built-in.o
                0x000000004028db68                _u_boot_list_2_cmd_2_bootefi
 .u_boot_list_2_cmd_2_bootelf
                0x000000004028dba0       0x38 cmd/built-in.o
                0x000000004028dba0                _u_boot_list_2_cmd_2_bootelf
 .u_boot_list_2_cmd_2_booti
                0x000000004028dbd8       0x38 cmd/built-in.o
                0x000000004028dbd8                _u_boot_list_2_cmd_2_booti
 .u_boot_list_2_cmd_2_bootm
                0x000000004028dc10       0x38 cmd/built-in.o
                0x000000004028dc10                _u_boot_list_2_cmd_2_bootm
 .u_boot_list_2_cmd_2_bootp
                0x000000004028dc48       0x38 cmd/built-in.o
                0x000000004028dc48                _u_boot_list_2_cmd_2_bootp
 .u_boot_list_2_cmd_2_bootvx
                0x000000004028dc80       0x38 cmd/built-in.o
                0x000000004028dc80                _u_boot_list_2_cmd_2_bootvx
 .u_boot_list_2_cmd_2_clocks
                0x000000004028dcb8       0x38 arch/arm/mach-imx/built-in.o
                0x000000004028dcb8                _u_boot_list_2_cmd_2_clocks
 .u_boot_list_2_cmd_2_cmp
                0x000000004028dcf0       0x38 cmd/built-in.o
                0x000000004028dcf0                _u_boot_list_2_cmd_2_cmp
 .u_boot_list_2_cmd_2_coninfo
                0x000000004028dd28       0x38 cmd/built-in.o
                0x000000004028dd28                _u_boot_list_2_cmd_2_coninfo
 .u_boot_list_2_cmd_2_cp
                0x000000004028dd60       0x38 cmd/built-in.o
                0x000000004028dd60                _u_boot_list_2_cmd_2_cp
 .u_boot_list_2_cmd_2_dcache
                0x000000004028dd98       0x38 cmd/built-in.o
                0x000000004028dd98                _u_boot_list_2_cmd_2_dcache
 .u_boot_list_2_cmd_2_dhcp
                0x000000004028ddd0       0x38 cmd/built-in.o
                0x000000004028ddd0                _u_boot_list_2_cmd_2_dhcp
 .u_boot_list_2_cmd_2_dm
                0x000000004028de08       0x38 cmd/built-in.o
                0x000000004028de08                _u_boot_list_2_cmd_2_dm
 .u_boot_list_2_cmd_2_echo
                0x000000004028de40       0x38 cmd/built-in.o
                0x000000004028de40                _u_boot_list_2_cmd_2_echo
 .u_boot_list_2_cmd_2_editenv
                0x000000004028de78       0x38 cmd/built-in.o
                0x000000004028de78                _u_boot_list_2_cmd_2_editenv
 .u_boot_list_2_cmd_2_env
                0x000000004028deb0       0x38 cmd/built-in.o
                0x000000004028deb0                _u_boot_list_2_cmd_2_env
 .u_boot_list_2_cmd_2_erase
                0x000000004028dee8       0x38 cmd/built-in.o
                0x000000004028dee8                _u_boot_list_2_cmd_2_erase
 .u_boot_list_2_cmd_2_exit
                0x000000004028df20       0x38 cmd/built-in.o
                0x000000004028df20                _u_boot_list_2_cmd_2_exit
 .u_boot_list_2_cmd_2_ext2load
                0x000000004028df58       0x38 cmd/built-in.o
                0x000000004028df58                _u_boot_list_2_cmd_2_ext2load
 .u_boot_list_2_cmd_2_ext2ls
                0x000000004028df90       0x38 cmd/built-in.o
                0x000000004028df90                _u_boot_list_2_cmd_2_ext2ls
 .u_boot_list_2_cmd_2_ext4load
                0x000000004028dfc8       0x38 cmd/built-in.o
                0x000000004028dfc8                _u_boot_list_2_cmd_2_ext4load
 .u_boot_list_2_cmd_2_ext4ls
                0x000000004028e000       0x38 cmd/built-in.o
                0x000000004028e000                _u_boot_list_2_cmd_2_ext4ls
 .u_boot_list_2_cmd_2_ext4size
                0x000000004028e038       0x38 cmd/built-in.o
                0x000000004028e038                _u_boot_list_2_cmd_2_ext4size
 .u_boot_list_2_cmd_2_ext4write
                0x000000004028e070       0x38 cmd/built-in.o
                0x000000004028e070                _u_boot_list_2_cmd_2_ext4write
 .u_boot_list_2_cmd_2_false
                0x000000004028e0a8       0x38 cmd/built-in.o
                0x000000004028e0a8                _u_boot_list_2_cmd_2_false
 .u_boot_list_2_cmd_2_fastboot
                0x000000004028e0e0       0x38 cmd/built-in.o
                0x000000004028e0e0                _u_boot_list_2_cmd_2_fastboot
 .u_boot_list_2_cmd_2_fatinfo
                0x000000004028e118       0x38 cmd/built-in.o
                0x000000004028e118                _u_boot_list_2_cmd_2_fatinfo
 .u_boot_list_2_cmd_2_fatload
                0x000000004028e150       0x38 cmd/built-in.o
                0x000000004028e150                _u_boot_list_2_cmd_2_fatload
 .u_boot_list_2_cmd_2_fatls
                0x000000004028e188       0x38 cmd/built-in.o
                0x000000004028e188                _u_boot_list_2_cmd_2_fatls
 .u_boot_list_2_cmd_2_fatmkdir
                0x000000004028e1c0       0x38 cmd/built-in.o
                0x000000004028e1c0                _u_boot_list_2_cmd_2_fatmkdir
 .u_boot_list_2_cmd_2_fatrm
                0x000000004028e1f8       0x38 cmd/built-in.o
                0x000000004028e1f8                _u_boot_list_2_cmd_2_fatrm
 .u_boot_list_2_cmd_2_fatsize
                0x000000004028e230       0x38 cmd/built-in.o
                0x000000004028e230                _u_boot_list_2_cmd_2_fatsize
 .u_boot_list_2_cmd_2_fatwrite
                0x000000004028e268       0x38 cmd/built-in.o
                0x000000004028e268                _u_boot_list_2_cmd_2_fatwrite
 .u_boot_list_2_cmd_2_fdt
                0x000000004028e2a0       0x38 cmd/built-in.o
                0x000000004028e2a0                _u_boot_list_2_cmd_2_fdt
 .u_boot_list_2_cmd_2_flinfo
                0x000000004028e2d8       0x38 cmd/built-in.o
                0x000000004028e2d8                _u_boot_list_2_cmd_2_flinfo
 .u_boot_list_2_cmd_2_fuse
                0x000000004028e310       0x38 cmd/built-in.o
                0x000000004028e310                _u_boot_list_2_cmd_2_fuse
 .u_boot_list_2_cmd_2_go
                0x000000004028e348       0x38 cmd/built-in.o
                0x000000004028e348                _u_boot_list_2_cmd_2_go
 .u_boot_list_2_cmd_2_gpio
                0x000000004028e380       0x38 cmd/built-in.o
                0x000000004028e380                _u_boot_list_2_cmd_2_gpio
 .u_boot_list_2_cmd_2_gpt
                0x000000004028e3b8       0x38 cmd/built-in.o
                0x000000004028e3b8                _u_boot_list_2_cmd_2_gpt
 .u_boot_list_2_cmd_2_gzwrite
                0x000000004028e3f0       0x38 cmd/built-in.o
                0x000000004028e3f0                _u_boot_list_2_cmd_2_gzwrite
 .u_boot_list_2_cmd_2_help
                0x000000004028e428       0x38 cmd/built-in.o
                0x000000004028e428                _u_boot_list_2_cmd_2_help
 .u_boot_list_2_cmd_2_i2c
                0x000000004028e460       0x38 cmd/built-in.o
                0x000000004028e460                _u_boot_list_2_cmd_2_i2c
 .u_boot_list_2_cmd_2_icache
                0x000000004028e498       0x38 cmd/built-in.o
                0x000000004028e498                _u_boot_list_2_cmd_2_icache
 .u_boot_list_2_cmd_2_iminfo
                0x000000004028e4d0       0x38 cmd/built-in.o
                0x000000004028e4d0                _u_boot_list_2_cmd_2_iminfo
 .u_boot_list_2_cmd_2_imxtract
                0x000000004028e508       0x38 cmd/built-in.o
                0x000000004028e508                _u_boot_list_2_cmd_2_imxtract
 .u_boot_list_2_cmd_2_itest
                0x000000004028e540       0x38 cmd/built-in.o
                0x000000004028e540                _u_boot_list_2_cmd_2_itest
 .u_boot_list_2_cmd_2_loadb
                0x000000004028e578       0x38 cmd/built-in.o
                0x000000004028e578                _u_boot_list_2_cmd_2_loadb
 .u_boot_list_2_cmd_2_loads
                0x000000004028e5b0       0x38 cmd/built-in.o
                0x000000004028e5b0                _u_boot_list_2_cmd_2_loads
 .u_boot_list_2_cmd_2_loadx
                0x000000004028e5e8       0x38 cmd/built-in.o
                0x000000004028e5e8                _u_boot_list_2_cmd_2_loadx
 .u_boot_list_2_cmd_2_loady
                0x000000004028e620       0x38 cmd/built-in.o
                0x000000004028e620                _u_boot_list_2_cmd_2_loady
 .u_boot_list_2_cmd_2_loop
                0x000000004028e658       0x38 cmd/built-in.o
                0x000000004028e658                _u_boot_list_2_cmd_2_loop
 .u_boot_list_2_cmd_2_lzmadec
                0x000000004028e690       0x38 cmd/built-in.o
                0x000000004028e690                _u_boot_list_2_cmd_2_lzmadec
 .u_boot_list_2_cmd_2_md
                0x000000004028e6c8       0x38 cmd/built-in.o
                0x000000004028e6c8                _u_boot_list_2_cmd_2_md
 .u_boot_list_2_cmd_2_mdio
                0x000000004028e700       0x38 cmd/built-in.o
                0x000000004028e700                _u_boot_list_2_cmd_2_mdio
 .u_boot_list_2_cmd_2_mii
                0x000000004028e738       0x38 cmd/built-in.o
                0x000000004028e738                _u_boot_list_2_cmd_2_mii
 .u_boot_list_2_cmd_2_mm
                0x000000004028e770       0x38 cmd/built-in.o
                0x000000004028e770                _u_boot_list_2_cmd_2_mm
 .u_boot_list_2_cmd_2_mmc
                0x000000004028e7a8       0x38 cmd/built-in.o
                0x000000004028e7a8                _u_boot_list_2_cmd_2_mmc
 .u_boot_list_2_cmd_2_mmcinfo
                0x000000004028e7e0       0x38 cmd/built-in.o
                0x000000004028e7e0                _u_boot_list_2_cmd_2_mmcinfo
 .u_boot_list_2_cmd_2_mtest
                0x000000004028e818       0x38 cmd/built-in.o
                0x000000004028e818                _u_boot_list_2_cmd_2_mtest
 .u_boot_list_2_cmd_2_mw
                0x000000004028e850       0x38 cmd/built-in.o
                0x000000004028e850                _u_boot_list_2_cmd_2_mw
 .u_boot_list_2_cmd_2_nfs
                0x000000004028e888       0x38 cmd/built-in.o
                0x000000004028e888                _u_boot_list_2_cmd_2_nfs
 .u_boot_list_2_cmd_2_nm
                0x000000004028e8c0       0x38 cmd/built-in.o
                0x000000004028e8c0                _u_boot_list_2_cmd_2_nm
 .u_boot_list_2_cmd_2_ping
                0x000000004028e8f8       0x38 cmd/built-in.o
                0x000000004028e8f8                _u_boot_list_2_cmd_2_ping
 .u_boot_list_2_cmd_2_pinmux
                0x000000004028e930       0x38 cmd/built-in.o
                0x000000004028e930                _u_boot_list_2_cmd_2_pinmux
 .u_boot_list_2_cmd_2_printenv
                0x000000004028e968       0x38 cmd/built-in.o
                0x000000004028e968                _u_boot_list_2_cmd_2_printenv
 .u_boot_list_2_cmd_2_protect
                0x000000004028e9a0       0x38 cmd/built-in.o
                0x000000004028e9a0                _u_boot_list_2_cmd_2_protect
 .u_boot_list_2_cmd_2_question_mark
                0x000000004028e9d8       0x38 cmd/built-in.o
                0x000000004028e9d8                _u_boot_list_2_cmd_2_question_mark
 .u_boot_list_2_cmd_2_read
                0x000000004028ea10       0x38 cmd/built-in.o
                0x000000004028ea10                _u_boot_list_2_cmd_2_read
 .u_boot_list_2_cmd_2_regulator
                0x000000004028ea48       0x38 cmd/built-in.o
                0x000000004028ea48                _u_boot_list_2_cmd_2_regulator
 .u_boot_list_2_cmd_2_reset
                0x000000004028ea80       0x38 cmd/built-in.o
                0x000000004028ea80                _u_boot_list_2_cmd_2_reset
 .u_boot_list_2_cmd_2_run
                0x000000004028eab8       0x38 cmd/built-in.o
                0x000000004028eab8                _u_boot_list_2_cmd_2_run
 .u_boot_list_2_cmd_2_saveenv
                0x000000004028eaf0       0x38 cmd/built-in.o
                0x000000004028eaf0                _u_boot_list_2_cmd_2_saveenv
 .u_boot_list_2_cmd_2_setenv
                0x000000004028eb28       0x38 cmd/built-in.o
                0x000000004028eb28                _u_boot_list_2_cmd_2_setenv
 .u_boot_list_2_cmd_2_setexpr
                0x000000004028eb60       0x38 cmd/built-in.o
                0x000000004028eb60                _u_boot_list_2_cmd_2_setexpr
 .u_boot_list_2_cmd_2_sf
                0x000000004028eb98       0x38 cmd/built-in.o
                0x000000004028eb98                _u_boot_list_2_cmd_2_sf
 .u_boot_list_2_cmd_2_showvar
                0x000000004028ebd0       0x38 common/built-in.o
                0x000000004028ebd0                _u_boot_list_2_cmd_2_showvar
 .u_boot_list_2_cmd_2_sleep
                0x000000004028ec08       0x38 cmd/built-in.o
                0x000000004028ec08                _u_boot_list_2_cmd_2_sleep
 .u_boot_list_2_cmd_2_source
                0x000000004028ec40       0x38 cmd/built-in.o
                0x000000004028ec40                _u_boot_list_2_cmd_2_source
 .u_boot_list_2_cmd_2_test
                0x000000004028ec78       0x38 cmd/built-in.o
                0x000000004028ec78                _u_boot_list_2_cmd_2_test
 .u_boot_list_2_cmd_2_tftpboot
                0x000000004028ecb0       0x38 cmd/built-in.o
                0x000000004028ecb0                _u_boot_list_2_cmd_2_tftpboot
 .u_boot_list_2_cmd_2_true
                0x000000004028ece8       0x38 cmd/built-in.o
                0x000000004028ece8                _u_boot_list_2_cmd_2_true
 .u_boot_list_2_cmd_2_ums
                0x000000004028ed20       0x38 cmd/built-in.o
                0x000000004028ed20                _u_boot_list_2_cmd_2_ums
 .u_boot_list_2_cmd_2_unzip
                0x000000004028ed58       0x38 cmd/built-in.o
                0x000000004028ed58                _u_boot_list_2_cmd_2_unzip
 .u_boot_list_2_cmd_2_usb
                0x000000004028ed90       0x38 cmd/built-in.o
                0x000000004028ed90                _u_boot_list_2_cmd_2_usb
 .u_boot_list_2_cmd_2_usbboot
                0x000000004028edc8       0x38 cmd/built-in.o
                0x000000004028edc8                _u_boot_list_2_cmd_2_usbboot
 .u_boot_list_2_cmd_2_version
                0x000000004028ee00       0x38 cmd/built-in.o
                0x000000004028ee00                _u_boot_list_2_cmd_2_version
 .u_boot_list_2_cmd_3
                0x000000004028ee38        0x0 cmd/built-in.o
 .u_boot_list_2_cmd_3
                0x000000004028ee38        0x0 common/built-in.o
 .u_boot_list_2_driver_1
                0x000000004028ee38        0x0 drivers/built-in.o
 .u_boot_list_2_driver_1
                0x000000004028ee38        0x0 lib/built-in.o
 .u_boot_list_2_driver_2_efi_blk
                0x000000004028ee38       0x80 lib/built-in.o
                0x000000004028ee38                _u_boot_list_2_driver_2_efi_blk
 .u_boot_list_2_driver_2_efi_block
                0x000000004028eeb8       0x80 lib/built-in.o
                0x000000004028eeb8                _u_boot_list_2_driver_2_efi_block
 .u_boot_list_2_driver_2_fecmxc_gem
                0x000000004028ef38       0x80 drivers/net/built-in.o
                0x000000004028ef38                _u_boot_list_2_driver_2_fecmxc_gem
 .u_boot_list_2_driver_2_fixed_regulator
                0x000000004028efb8       0x80 drivers/power/regulator/built-in.o
                0x000000004028efb8                _u_boot_list_2_driver_2_fixed_regulator
 .u_boot_list_2_driver_2_fsl_esdhc
                0x000000004028f038       0x80 drivers/built-in.o
                0x000000004028f038                _u_boot_list_2_driver_2_fsl_esdhc
 .u_boot_list_2_driver_2_fsl_qspi
                0x000000004028f0b8       0x80 drivers/spi/built-in.o
                0x000000004028f0b8                _u_boot_list_2_driver_2_fsl_qspi
 .u_boot_list_2_driver_2_gpio_mxc
                0x000000004028f138       0x80 drivers/gpio/built-in.o
                0x000000004028f138                _u_boot_list_2_driver_2_gpio_mxc
 .u_boot_list_2_driver_2_gpio_regulator
                0x000000004028f1b8       0x80 drivers/power/regulator/built-in.o
                0x000000004028f1b8                _u_boot_list_2_driver_2_gpio_regulator
 .u_boot_list_2_driver_2_i2c_generic_chip_drv
                0x000000004028f238       0x80 drivers/i2c/built-in.o
                0x000000004028f238                _u_boot_list_2_driver_2_i2c_generic_chip_drv
 .u_boot_list_2_driver_2_i2c_mxc
                0x000000004028f2b8       0x80 drivers/i2c/built-in.o
                0x000000004028f2b8                _u_boot_list_2_driver_2_i2c_mxc
 .u_boot_list_2_driver_2_imx8mq_pinctrl
                0x000000004028f338       0x80 drivers/built-in.o
                0x000000004028f338                _u_boot_list_2_driver_2_imx8mq_pinctrl
 .u_boot_list_2_driver_2_mmc
                0x000000004028f3b8       0x80 drivers/built-in.o
                0x000000004028f3b8                _u_boot_list_2_driver_2_mmc
 .u_boot_list_2_driver_2_mmc_blk
                0x000000004028f438       0x80 drivers/built-in.o
                0x000000004028f438                _u_boot_list_2_driver_2_mmc_blk
 .u_boot_list_2_driver_2_nxp_tmu
                0x000000004028f4b8       0x80 drivers/built-in.o
                0x000000004028f4b8                _u_boot_list_2_driver_2_nxp_tmu
 .u_boot_list_2_driver_2_pinconfig_generic
                0x000000004028f538       0x80 drivers/built-in.o
                0x000000004028f538                _u_boot_list_2_driver_2_pinconfig_generic
 .u_boot_list_2_driver_2_root_driver
                0x000000004028f5b8       0x80 drivers/built-in.o
                0x000000004028f5b8                _u_boot_list_2_driver_2_root_driver
 .u_boot_list_2_driver_2_simple_bus_drv
                0x000000004028f638       0x80 drivers/built-in.o
                0x000000004028f638                _u_boot_list_2_driver_2_simple_bus_drv
 .u_boot_list_2_driver_2_spi_flash_std
                0x000000004028f6b8       0x80 drivers/mtd/spi/built-in.o
                0x000000004028f6b8                _u_boot_list_2_driver_2_spi_flash_std
 .u_boot_list_2_driver_2_spi_generic_drv
                0x000000004028f738       0x80 drivers/spi/built-in.o
                0x000000004028f738                _u_boot_list_2_driver_2_spi_generic_drv
 .u_boot_list_2_driver_2_usb_dev_generic_drv
                0x000000004028f7b8       0x80 drivers/usb/host/built-in.o
                0x000000004028f7b8                _u_boot_list_2_driver_2_usb_dev_generic_drv
 .u_boot_list_2_driver_2_usb_generic_hub
                0x000000004028f838       0x80 common/built-in.o
                0x000000004028f838                _u_boot_list_2_driver_2_usb_generic_hub
 .u_boot_list_2_driver_2_usb_mass_storage
                0x000000004028f8b8       0x80 common/built-in.o
                0x000000004028f8b8                _u_boot_list_2_driver_2_usb_mass_storage
 .u_boot_list_2_driver_2_usb_storage_blk
                0x000000004028f938       0x80 common/built-in.o
                0x000000004028f938                _u_boot_list_2_driver_2_usb_storage_blk
 .u_boot_list_2_driver_2_xhci_dwc3
                0x000000004028f9b8       0x80 drivers/usb/host/built-in.o
                0x000000004028f9b8                _u_boot_list_2_driver_2_xhci_dwc3
 .u_boot_list_2_driver_2_xhci_imx8m
                0x000000004028fa38       0x80 drivers/usb/host/built-in.o
                0x000000004028fa38                _u_boot_list_2_driver_2_xhci_imx8m
 .u_boot_list_2_driver_3
                0x000000004028fab8        0x0 drivers/built-in.o
 .u_boot_list_2_driver_3
                0x000000004028fab8        0x0 lib/built-in.o
 .u_boot_list_2_driver_info_1
                0x000000004028fab8        0x0 drivers/built-in.o
 .u_boot_list_2_driver_info_3
                0x000000004028fab8        0x0 drivers/built-in.o
 .u_boot_list_2_env_clbk_1
                0x000000004028fab8        0x0 env/built-in.o
 .u_boot_list_2_env_clbk_2_baudrate
                0x000000004028fab8       0x10 drivers/serial/built-in.o
                0x000000004028fab8                _u_boot_list_2_env_clbk_2_baudrate
 .u_boot_list_2_env_clbk_2_callbacks
                0x000000004028fac8       0x10 env/built-in.o
                0x000000004028fac8                _u_boot_list_2_env_clbk_2_callbacks
 .u_boot_list_2_env_clbk_2_console
                0x000000004028fad8       0x10 common/built-in.o
                0x000000004028fad8                _u_boot_list_2_env_clbk_2_console
 .u_boot_list_2_env_clbk_2_ethaddr
                0x000000004028fae8       0x10 net/built-in.o
                0x000000004028fae8                _u_boot_list_2_env_clbk_2_ethaddr
 .u_boot_list_2_env_clbk_2_flags
                0x000000004028faf8       0x10 env/built-in.o
                0x000000004028faf8                _u_boot_list_2_env_clbk_2_flags
 .u_boot_list_2_env_clbk_2_gatewayip
                0x000000004028fb08       0x10 net/built-in.o
                0x000000004028fb08                _u_boot_list_2_env_clbk_2_gatewayip
 .u_boot_list_2_env_clbk_2_ipaddr
                0x000000004028fb18       0x10 net/built-in.o
                0x000000004028fb18                _u_boot_list_2_env_clbk_2_ipaddr
 .u_boot_list_2_env_clbk_2_loadaddr
                0x000000004028fb28       0x10 common/built-in.o
                0x000000004028fb28                _u_boot_list_2_env_clbk_2_loadaddr
 .u_boot_list_2_env_clbk_2_netmask
                0x000000004028fb38       0x10 net/built-in.o
                0x000000004028fb38                _u_boot_list_2_env_clbk_2_netmask
 .u_boot_list_2_env_clbk_2_nvlan
                0x000000004028fb48       0x10 net/built-in.o
                0x000000004028fb48                _u_boot_list_2_env_clbk_2_nvlan
 .u_boot_list_2_env_clbk_2_serialno
                0x000000004028fb58       0x10 drivers/usb/gadget/built-in.o
                0x000000004028fb58                _u_boot_list_2_env_clbk_2_serialno
 .u_boot_list_2_env_clbk_2_serverip
                0x000000004028fb68       0x10 net/built-in.o
                0x000000004028fb68                _u_boot_list_2_env_clbk_2_serverip
 .u_boot_list_2_env_clbk_2_vlan
                0x000000004028fb78       0x10 net/built-in.o
                0x000000004028fb78                _u_boot_list_2_env_clbk_2_vlan
 .u_boot_list_2_env_clbk_3
                0x000000004028fb88        0x0 env/built-in.o
 .u_boot_list_2_env_driver_1
                0x000000004028fb88        0x0 env/built-in.o
 .u_boot_list_2_env_driver_2_mmc
                0x000000004028fb88       0x28 env/built-in.o
                0x000000004028fb88                _u_boot_list_2_env_driver_2_mmc
 .u_boot_list_2_env_driver_3
                0x000000004028fbb0        0x0 env/built-in.o
 .u_boot_list_2_fit_loadable_1
                0x000000004028fbb0        0x0 common/built-in.o
 .u_boot_list_2_fit_loadable_3
                0x000000004028fbb0        0x0 common/built-in.o
 .u_boot_list_2_g_dnl_bind_callbacks_1
                0x000000004028fbb0        0x0 drivers/usb/gadget/built-in.o
 .u_boot_list_2_g_dnl_bind_callbacks_2___usb_function_name_usb_dnl_fastboot
                0x000000004028fbb0       0x10 drivers/usb/gadget/built-in.o
                0x000000004028fbb0                _u_boot_list_2_g_dnl_bind_callbacks_2___usb_function_name_usb_dnl_fastboot
 .u_boot_list_2_g_dnl_bind_callbacks_2___usb_function_name_usb_dnl_ums
                0x000000004028fbc0       0x10 drivers/usb/gadget/built-in.o
                0x000000004028fbc0                _u_boot_list_2_g_dnl_bind_callbacks_2___usb_function_name_usb_dnl_ums
 .u_boot_list_2_part_driver_1
                0x000000004028fbd0        0x0 disk/built-in.o
 .u_boot_list_2_part_driver_2_a_efi
                0x000000004028fbd0       0x28 disk/built-in.o
                0x000000004028fbd0                _u_boot_list_2_part_driver_2_a_efi
 .u_boot_list_2_part_driver_2_dos
                0x000000004028fbf8       0x28 disk/built-in.o
                0x000000004028fbf8                _u_boot_list_2_part_driver_2_dos
 .u_boot_list_2_part_driver_3
                0x000000004028fc20        0x0 disk/built-in.o
 .u_boot_list_2_uclass_1
                0x000000004028fc20        0x0 drivers/built-in.o
 .u_boot_list_2_uclass_2_blk
                0x000000004028fc20       0x88 drivers/built-in.o
                0x000000004028fc20                _u_boot_list_2_uclass_2_blk
 .u_boot_list_2_uclass_2_efi
                0x000000004028fca8       0x88 lib/built-in.o
                0x000000004028fca8                _u_boot_list_2_uclass_2_efi
 .u_boot_list_2_uclass_2_eth
                0x000000004028fd30       0x88 net/built-in.o
                0x000000004028fd30                _u_boot_list_2_uclass_2_eth
 .u_boot_list_2_uclass_2_gpio
                0x000000004028fdb8       0x88 drivers/gpio/built-in.o
                0x000000004028fdb8                _u_boot_list_2_uclass_2_gpio
 .u_boot_list_2_uclass_2_i2c
                0x000000004028fe40       0x88 drivers/i2c/built-in.o
                0x000000004028fe40                _u_boot_list_2_uclass_2_i2c
 .u_boot_list_2_uclass_2_i2c_generic
                0x000000004028fec8       0x88 drivers/i2c/built-in.o
                0x000000004028fec8                _u_boot_list_2_uclass_2_i2c_generic
 .u_boot_list_2_uclass_2_mmc
                0x000000004028ff50       0x88 drivers/built-in.o
                0x000000004028ff50                _u_boot_list_2_uclass_2_mmc
 .u_boot_list_2_uclass_2_pinconfig
                0x000000004028ffd8       0x88 drivers/built-in.o
                0x000000004028ffd8                _u_boot_list_2_uclass_2_pinconfig
 .u_boot_list_2_uclass_2_pinctrl
                0x0000000040290060       0x88 drivers/built-in.o
                0x0000000040290060                _u_boot_list_2_uclass_2_pinctrl
 .u_boot_list_2_uclass_2_pmic
                0x00000000402900e8       0x88 drivers/power/pmic/built-in.o
                0x00000000402900e8                _u_boot_list_2_uclass_2_pmic
 .u_boot_list_2_uclass_2_regulator
                0x0000000040290170       0x88 drivers/power/regulator/built-in.o
                0x0000000040290170                _u_boot_list_2_uclass_2_regulator
 .u_boot_list_2_uclass_2_root
                0x00000000402901f8       0x88 drivers/built-in.o
                0x00000000402901f8                _u_boot_list_2_uclass_2_root
 .u_boot_list_2_uclass_2_simple_bus
                0x0000000040290280       0x88 drivers/built-in.o
                0x0000000040290280                _u_boot_list_2_uclass_2_simple_bus
 .u_boot_list_2_uclass_2_spi
                0x0000000040290308       0x88 drivers/spi/built-in.o
                0x0000000040290308                _u_boot_list_2_uclass_2_spi
 .u_boot_list_2_uclass_2_spi_generic
                0x0000000040290390       0x88 drivers/spi/built-in.o
                0x0000000040290390                _u_boot_list_2_uclass_2_spi_generic
 .u_boot_list_2_uclass_2_spi_nor
                0x0000000040290418       0x88 drivers/mtd/spi/built-in.o
                0x0000000040290418                _u_boot_list_2_uclass_2_spi_nor
 .u_boot_list_2_uclass_2_thermal
                0x00000000402904a0       0x88 drivers/built-in.o
                0x00000000402904a0                _u_boot_list_2_uclass_2_thermal
 .u_boot_list_2_uclass_2_usb
                0x0000000040290528       0x88 drivers/usb/host/built-in.o
                0x0000000040290528                _u_boot_list_2_uclass_2_usb
 .u_boot_list_2_uclass_2_usb_dev_generic
                0x00000000402905b0       0x88 drivers/usb/host/built-in.o
                0x00000000402905b0                _u_boot_list_2_uclass_2_usb_dev_generic
 .u_boot_list_2_uclass_2_usb_gadget_generic
                0x0000000040290638       0x88 drivers/usb/gadget/udc/built-in.o
                0x0000000040290638                _u_boot_list_2_uclass_2_usb_gadget_generic
 .u_boot_list_2_uclass_2_usb_hub
                0x00000000402906c0       0x88 common/built-in.o
                0x00000000402906c0                _u_boot_list_2_uclass_2_usb_hub
 .u_boot_list_2_uclass_2_usb_mass_storage
                0x0000000040290748       0x88 common/built-in.o
                0x0000000040290748                _u_boot_list_2_uclass_2_usb_mass_storage
 .u_boot_list_2_uclass_3
                0x00000000402907d0        0x0 drivers/built-in.o
 .u_boot_list_2_usb_driver_entry_1
                0x00000000402907d0        0x0 drivers/usb/host/built-in.o
 .u_boot_list_2_usb_driver_entry_2_usb_generic_hub
                0x00000000402907d0       0x10 common/built-in.o
                0x00000000402907d0                _u_boot_list_2_usb_driver_entry_2_usb_generic_hub
 .u_boot_list_2_usb_driver_entry_2_usb_mass_storage
                0x00000000402907e0       0x10 common/built-in.o
                0x00000000402907e0                _u_boot_list_2_usb_driver_entry_2_usb_mass_storage
 .u_boot_list_2_usb_driver_entry_3
                0x00000000402907f0        0x0 drivers/usb/host/built-in.o
                0x00000000402907f0                . = ALIGN (0x8)

.efi_runtime_rel
                0x00000000402907f0      0x1e0
                0x00000000402907f0                __efi_runtime_rel_start = .
 *(.rel*.efi_runtime)
 .rela.data.efi_runtime
                0x00000000402907f0      0x1e0 arch/arm/cpu/armv8/start.o
 *(.rel*.efi_runtime.*)
                0x00000000402909d0                __efi_runtime_rel_stop = .
                0x00000000402909d0                . = ALIGN (0x8)

.image_copy_end
                0x00000000402909d0        0x0
 *(.__image_copy_end)
 .__image_copy_end
                0x00000000402909d0        0x0 arch/arm/lib/built-in.o
                0x00000000402909d0                . = ALIGN (0x8)

.rel_dyn_start  0x00000000402909d0        0x0
 *(.__rel_dyn_start)
 .__rel_dyn_start
                0x00000000402909d0        0x0 arch/arm/lib/built-in.o

.rela.dyn       0x00000000402909d0     0xccc0
 *(.rela*)
 .rela.got      0x00000000402909d0        0x0 arch/arm/cpu/armv8/start.o
 .rela.plt      0x00000000402909d0        0x0 arch/arm/cpu/armv8/start.o
 .rela.bss      0x00000000402909d0        0x0 arch/arm/cpu/armv8/start.o
 .rela.data.rel.ro
                0x00000000402909d0        0x0 arch/arm/cpu/armv8/start.o
 .rela.ifunc    0x00000000402909d0        0x0 arch/arm/cpu/armv8/start.o
 .rela.text     0x00000000402909d0       0x30 arch/arm/cpu/armv8/start.o
 .rela.rodata   0x0000000040290a00       0xc0 arch/arm/cpu/armv8/start.o
 .rela.rodata.nodes_path.10091
                0x0000000040290ac0       0x60 arch/arm/cpu/armv8/start.o
 .rela.u_boot_list_2_cmd_2_bootaux
                0x0000000040290b20       0x78 arch/arm/cpu/armv8/start.o
 .rela.data.mem_map
                0x0000000040290b98       0x18 arch/arm/cpu/armv8/start.o
 .rela.u_boot_list_2_cmd_2_clocks
                0x0000000040290bb0       0x78 arch/arm/cpu/armv8/start.o
 .rela.rodata.fdt_member_table
                0x0000000040290c28       0xf0 arch/arm/cpu/armv8/start.o
 .rela.rodata.op_table
                0x0000000040290d18      0x138 arch/arm/cpu/armv8/start.o
 .rela.rodata.desc_and_len_tbl
                0x0000000040290e50       0x90 arch/arm/cpu/armv8/start.o
 .rela.rodata.reg_0_5_desc_tbl
                0x0000000040290ee0       0x90 arch/arm/cpu/armv8/start.o
 .rela.rodata.reg_0_desc_tbl
                0x0000000040290f70       0xf0 arch/arm/cpu/armv8/start.o
 .rela.rodata.reg_1_desc_tbl
                0x0000000040291060      0x180 arch/arm/cpu/armv8/start.o
 .rela.rodata.reg_2_desc_tbl
                0x00000000402911e0       0x18 arch/arm/cpu/armv8/start.o
 .rela.rodata.reg_3_desc_tbl
                0x00000000402911f8       0x48 arch/arm/cpu/armv8/start.o
 .rela.rodata.reg_4_desc_tbl
                0x0000000040291240      0x120 arch/arm/cpu/armv8/start.o
 .rela.rodata.reg_5_desc_tbl
                0x0000000040291360      0x120 arch/arm/cpu/armv8/start.o
 .rela.rodata.efi_var_attrs
                0x0000000040291480       0x78 arch/arm/cpu/armv8/start.o
 .rela.rodata.op_adv
                0x00000000402914f8      0x180 arch/arm/cpu/armv8/start.o
 .rela.rodata.CSWTCH.34
                0x0000000040291678       0x78 arch/arm/cpu/armv8/start.o
 .rela.u_boot_list_2_cmd_2_go
                0x00000000402916f0       0x78 arch/arm/cpu/armv8/start.o
 .rela.u_boot_list_2_cmd_2_reset
                0x0000000040291768       0x78 arch/arm/cpu/armv8/start.o
 .rela.data.cmd_bootm_sub
                0x00000000402917e0      0x360 arch/arm/cpu/armv8/start.o
 .rela.u_boot_list_2_cmd_2_boot
                0x0000000040291b40       0x78 arch/arm/cpu/armv8/start.o
 .rela.u_boot_list_2_cmd_2_bootd
                0x0000000040291bb8       0x78 arch/arm/cpu/armv8/start.o
 .rela.u_boot_list_2_cmd_2_bootm
                0x0000000040291c30       0x78 arch/arm/cpu/armv8/start.o
 .rela.u_boot_list_2_cmd_2_iminfo
                0x0000000040291ca8       0x78 arch/arm/cpu/armv8/start.o
 .rela.u_boot_list_2_cmd_2_help
                0x0000000040291d20       0x78 arch/arm/cpu/armv8/start.o
 .rela.u_boot_list_2_cmd_2_question_mark
                0x0000000040291d98       0x78 arch/arm/cpu/armv8/start.o
 .rela.u_boot_list_2_cmd_2_version
                0x0000000040291e10       0x78 arch/arm/cpu/armv8/start.o
 .rela.u_boot_list_2_cmd_2_source
                0x0000000040291e88       0x78 arch/arm/cpu/armv8/start.o
 .rela.u_boot_list_2_cmd_2_bdinfo
                0x0000000040291f00       0x78 arch/arm/cpu/armv8/start.o
 .rela.data.cmd_blkc_sub
                0x0000000040291f78       0xf0 arch/arm/cpu/armv8/start.o
 .rela.u_boot_list_2_cmd_2_blkcache
                0x0000000040292068       0x78 arch/arm/cpu/armv8/start.o
 .rela.u_boot_list_2_cmd_2_bootefi
                0x00000000402920e0       0x78 arch/arm/cpu/armv8/start.o
 .rela.u_boot_list_2_cmd_2_booti
                0x0000000040292158       0x78 arch/arm/cpu/armv8/start.o
 .rela.u_boot_list_2_cmd_2_dcache
                0x00000000402921d0       0x78 arch/arm/cpu/armv8/start.o
 .rela.u_boot_list_2_cmd_2_icache
                0x0000000040292248       0x78 arch/arm/cpu/armv8/start.o
 .rela.u_boot_list_2_cmd_2_coninfo
                0x00000000402922c0       0x78 arch/arm/cpu/armv8/start.o
 .rela.data.test_commands
                0x0000000040292338      0x168 arch/arm/cpu/armv8/start.o
 .rela.u_boot_list_2_cmd_2_dm
                0x00000000402924a0       0x78 arch/arm/cpu/armv8/start.o
 .rela.u_boot_list_2_cmd_2_echo
                0x0000000040292518       0x78 arch/arm/cpu/armv8/start.o
 .rela.u_boot_list_2_cmd_2_bootelf
                0x0000000040292590       0x78 arch/arm/cpu/armv8/start.o
 .rela.u_boot_list_2_cmd_2_bootvx
                0x0000000040292608       0x78 arch/arm/cpu/armv8/start.o
 .rela.u_boot_list_2_cmd_2_exit
                0x0000000040292680       0x78 arch/arm/cpu/armv8/start.o
 .rela.u_boot_list_2_cmd_2_ext4load
                0x00000000402926f8       0x78 arch/arm/cpu/armv8/start.o
 .rela.u_boot_list_2_cmd_2_ext4ls
                0x0000000040292770       0x78 arch/arm/cpu/armv8/start.o
 .rela.u_boot_list_2_cmd_2_ext4size
                0x00000000402927e8       0x78 arch/arm/cpu/armv8/start.o
 .rela.u_boot_list_2_cmd_2_ext4write
                0x0000000040292860       0x78 arch/arm/cpu/armv8/start.o
 .rela.u_boot_list_2_cmd_2_ext2load
                0x00000000402928d8       0x78 arch/arm/cpu/armv8/start.o
 .rela.u_boot_list_2_cmd_2_ext2ls
                0x0000000040292950       0x78 arch/arm/cpu/armv8/start.o
 .rela.u_boot_list_2_cmd_2_fatinfo
                0x00000000402929c8       0x78 arch/arm/cpu/armv8/start.o
 .rela.u_boot_list_2_cmd_2_fatload
                0x0000000040292a40       0x78 arch/arm/cpu/armv8/start.o
 .rela.u_boot_list_2_cmd_2_fatls
                0x0000000040292ab8       0x78 arch/arm/cpu/armv8/start.o
 .rela.u_boot_list_2_cmd_2_fatmkdir
                0x0000000040292b30       0x78 arch/arm/cpu/armv8/start.o
 .rela.u_boot_list_2_cmd_2_fatrm
                0x0000000040292ba8       0x78 arch/arm/cpu/armv8/start.o
 .rela.u_boot_list_2_cmd_2_fatsize
                0x0000000040292c20       0x78 arch/arm/cpu/armv8/start.o
 .rela.u_boot_list_2_cmd_2_fatwrite
                0x0000000040292c98       0x78 arch/arm/cpu/armv8/start.o
 .rela.u_boot_list_2_cmd_2_fdt
                0x0000000040292d10       0x78 arch/arm/cpu/armv8/start.o
 .rela.u_boot_list_2_cmd_2_erase
                0x0000000040292d88       0x78 arch/arm/cpu/armv8/start.o
 .rela.u_boot_list_2_cmd_2_flinfo
                0x0000000040292e00       0x78 arch/arm/cpu/armv8/start.o
 .rela.u_boot_list_2_cmd_2_protect
                0x0000000040292e78       0x78 arch/arm/cpu/armv8/start.o
 .rela.u_boot_list_2_cmd_2_fuse
                0x0000000040292ef0       0x78 arch/arm/cpu/armv8/start.o
 .rela.u_boot_list_2_cmd_2_gpio
                0x0000000040292f68       0x78 arch/arm/cpu/armv8/start.o
 .rela.data.cmd_i2c_sub
                0x0000000040292fe0      0x708 arch/arm/cpu/armv8/start.o
 .rela.u_boot_list_2_cmd_2_i2c
                0x00000000402936e8       0x78 arch/arm/cpu/armv8/start.o
 .rela.u_boot_list_2_cmd_2_itest
                0x0000000040293760       0x78 arch/arm/cpu/armv8/start.o
 .rela.u_boot_list_2_cmd_2_loadb
                0x00000000402937d8       0x78 arch/arm/cpu/armv8/start.o
 .rela.u_boot_list_2_cmd_2_loads
                0x0000000040293850       0x78 arch/arm/cpu/armv8/start.o
 .rela.u_boot_list_2_cmd_2_loadx
                0x00000000402938c8       0x78 arch/arm/cpu/armv8/start.o
 .rela.u_boot_list_2_cmd_2_loady
                0x0000000040293940       0x78 arch/arm/cpu/armv8/start.o
 .rela.u_boot_list_2_cmd_2_base
                0x00000000402939b8       0x78 arch/arm/cpu/armv8/start.o
 .rela.u_boot_list_2_cmd_2_cmp
                0x0000000040293a30       0x78 arch/arm/cpu/armv8/start.o
 .rela.u_boot_list_2_cmd_2_cp
                0x0000000040293aa8       0x78 arch/arm/cpu/armv8/start.o
 .rela.u_boot_list_2_cmd_2_loop
                0x0000000040293b20       0x78 arch/arm/cpu/armv8/start.o
 .rela.u_boot_list_2_cmd_2_md
                0x0000000040293b98       0x78 arch/arm/cpu/armv8/start.o
 .rela.u_boot_list_2_cmd_2_mm
                0x0000000040293c10       0x78 arch/arm/cpu/armv8/start.o
 .rela.u_boot_list_2_cmd_2_mtest
                0x0000000040293c88       0x78 arch/arm/cpu/armv8/start.o
 .rela.u_boot_list_2_cmd_2_mw
                0x0000000040293d00       0x78 arch/arm/cpu/armv8/start.o
 .rela.u_boot_list_2_cmd_2_nm
                0x0000000040293d78       0x78 arch/arm/cpu/armv8/start.o
 .rela.u_boot_list_2_cmd_2_mii
                0x0000000040293df0       0x78 arch/arm/cpu/armv8/start.o
 .rela.u_boot_list_2_cmd_2_mdio
                0x0000000040293e68       0x78 arch/arm/cpu/armv8/start.o
 .rela.u_boot_list_2_cmd_2_sleep
                0x0000000040293ee0       0x78 arch/arm/cpu/armv8/start.o
 .rela.data.cmd_mmc
                0x0000000040293f58      0x690 arch/arm/cpu/armv8/start.o
 .rela.u_boot_list_2_cmd_2_mmc
                0x00000000402945e8       0x78 arch/arm/cpu/armv8/start.o
 .rela.u_boot_list_2_cmd_2_mmcinfo
                0x0000000040294660       0x78 arch/arm/cpu/armv8/start.o
 .rela.u_boot_list_2_cmd_2_bootp
                0x00000000402946d8       0x78 arch/arm/cpu/armv8/start.o
 .rela.u_boot_list_2_cmd_2_dhcp
                0x0000000040294750       0x78 arch/arm/cpu/armv8/start.o
 .rela.u_boot_list_2_cmd_2_nfs
                0x00000000402947c8       0x78 arch/arm/cpu/armv8/start.o
 .rela.u_boot_list_2_cmd_2_ping
                0x0000000040294840       0x78 arch/arm/cpu/armv8/start.o
 .rela.u_boot_list_2_cmd_2_tftpboot
                0x00000000402948b8       0x78 arch/arm/cpu/armv8/start.o
 .rela.data.pinmux_subcmd
                0x0000000040294930      0x168 arch/arm/cpu/armv8/start.o
 .rela.u_boot_list_2_cmd_2_pinmux
                0x0000000040294a98       0x78 arch/arm/cpu/armv8/start.o
 .rela.u_boot_list_2_cmd_2_read
                0x0000000040294b10       0x78 arch/arm/cpu/armv8/start.o
 .rela.u_boot_list_2_cmd_2_sf
                0x0000000040294b88       0x78 arch/arm/cpu/armv8/start.o
 .rela.u_boot_list_2_cmd_2_setexpr
                0x0000000040294c00       0x78 arch/arm/cpu/armv8/start.o
 .rela.u_boot_list_2_cmd_2_false
                0x0000000040294c78       0x60 arch/arm/cpu/armv8/start.o
 .rela.u_boot_list_2_cmd_2_test
                0x0000000040294cd8       0x78 arch/arm/cpu/armv8/start.o
 .rela.u_boot_list_2_cmd_2_true
                0x0000000040294d50       0x60 arch/arm/cpu/armv8/start.o
 .rela.u_boot_list_2_cmd_2_gzwrite
                0x0000000040294db0       0x78 arch/arm/cpu/armv8/start.o
 .rela.u_boot_list_2_cmd_2_unzip
                0x0000000040294e28       0x78 arch/arm/cpu/armv8/start.o
 .rela.u_boot_list_2_cmd_2_lzmadec
                0x0000000040294ea0       0x78 arch/arm/cpu/armv8/start.o
 .rela.u_boot_list_2_cmd_2_usb
                0x0000000040294f18       0x78 arch/arm/cpu/armv8/start.o
 .rela.u_boot_list_2_cmd_2_usbboot
                0x0000000040294f90       0x78 arch/arm/cpu/armv8/start.o
 .rela.u_boot_list_2_cmd_2_fastboot
                0x0000000040295008       0x78 arch/arm/cpu/armv8/start.o
 .rela.u_boot_list_2_cmd_2_ums
                0x0000000040295080       0x78 arch/arm/cpu/armv8/start.o
 .rela.u_boot_list_2_cmd_2_imxtract
                0x00000000402950f8       0x78 arch/arm/cpu/armv8/start.o
 .rela.data.disk_partitions
                0x0000000040295170       0x30 arch/arm/cpu/armv8/start.o
 .rela.u_boot_list_2_cmd_2_gpt
                0x00000000402951a0       0x78 arch/arm/cpu/armv8/start.o
 .rela.data.subcmd
                0x0000000040295218      0x438 arch/arm/cpu/armv8/start.o
 .rela.u_boot_list_2_cmd_2_regulator
                0x0000000040295650       0x78 arch/arm/cpu/armv8/start.o
 .rela.data.cmd_env_sub
                0x00000000402956c8      0x3c0 arch/arm/cpu/armv8/start.o
 .rela.u_boot_list_2_cmd_2_editenv
                0x0000000040295a88       0x90 arch/arm/cpu/armv8/start.o
 .rela.u_boot_list_2_cmd_2_env
                0x0000000040295b18       0x78 arch/arm/cpu/armv8/start.o
 .rela.u_boot_list_2_cmd_2_printenv
                0x0000000040295b90       0x90 arch/arm/cpu/armv8/start.o
 .rela.u_boot_list_2_cmd_2_run
                0x0000000040295c20       0x90 arch/arm/cpu/armv8/start.o
 .rela.u_boot_list_2_cmd_2_saveenv
                0x0000000040295cb0       0x78 arch/arm/cpu/armv8/start.o
 .rela.u_boot_list_2_cmd_2_setenv
                0x0000000040295d28       0x90 arch/arm/cpu/armv8/start.o
 .rela.rodata.init_sequence_f
                0x0000000040295db8      0x438 arch/arm/cpu/armv8/start.o
 .rela.rodata.boot_os
                0x00000000402961f0       0x90 arch/arm/cpu/armv8/start.o
 .rela.rodata.usb_hub_ids
                0x0000000040296280       0x18 arch/arm/cpu/armv8/start.o
 .rela.rodata.usb_mass_storage_ids
                0x0000000040296298       0x18 arch/arm/cpu/armv8/start.o
 .rela.rodata.usb_storage_ops
                0x00000000402962b0       0x30 arch/arm/cpu/armv8/start.o
 .rela.rodata.uimage_arch
                0x00000000402962e0      0x510 arch/arm/cpu/armv8/start.o
 .rela.rodata.uimage_comp
                0x00000000402967f0      0x150 arch/arm/cpu/armv8/start.o
 .rela.rodata.uimage_os
                0x0000000040296940      0x240 arch/arm/cpu/armv8/start.o
 .rela.rodata.uimage_type
                0x0000000040296b80      0x750 arch/arm/cpu/armv8/start.o
 .rela.rodata.CSWTCH.136
                0x00000000402972d0      0x2b8 arch/arm/cpu/armv8/start.o
 .rela.rodata.CSWTCH.14
                0x0000000040297588       0xc0 arch/arm/cpu/armv8/start.o
 .rela.data.reserved_list
                0x0000000040297648      0x108 arch/arm/cpu/armv8/start.o
 .rela.u_boot_list_2_cmd_2_showvar
                0x0000000040297750       0x78 arch/arm/cpu/armv8/start.o
 .rela.data.init_sequence_r
                0x00000000402977c8      0x300 arch/arm/cpu/armv8/start.o
 .rela.data.of_busses
                0x0000000040297ac8       0x78 arch/arm/cpu/armv8/start.o
 .rela.data.usb_scan_list
                0x0000000040297b40       0x30 arch/arm/cpu/armv8/start.o
 .rela.u_boot_list_2_driver_2_usb_generic_hub
                0x0000000040297b70       0x30 arch/arm/cpu/armv8/start.o
 .rela.u_boot_list_2_uclass_2_usb_hub
                0x0000000040297ba0       0x60 arch/arm/cpu/armv8/start.o
 .rela.u_boot_list_2_usb_driver_entry_2_usb_generic_hub
                0x0000000040297c00       0x30 arch/arm/cpu/armv8/start.o
 .rela.u_boot_list_2_driver_2_usb_mass_storage
                0x0000000040297c30       0x48 arch/arm/cpu/armv8/start.o
 .rela.u_boot_list_2_driver_2_usb_storage_blk
                0x0000000040297c78       0x30 arch/arm/cpu/armv8/start.o
 .rela.u_boot_list_2_uclass_2_usb_mass_storage
                0x0000000040297ca8       0x18 arch/arm/cpu/armv8/start.o
 .rela.u_boot_list_2_usb_driver_entry_2_usb_mass_storage
                0x0000000040297cc0       0x30 arch/arm/cpu/armv8/start.o
 .rela.u_boot_list_2_env_clbk_2_console
                0x0000000040297cf0       0x30 arch/arm/cpu/armv8/start.o
 .rela.data.av_
                0x0000000040297d20     0x1800 arch/arm/cpu/armv8/start.o
 .rela.u_boot_list_2_env_clbk_2_loadaddr
                0x0000000040299520       0x30 arch/arm/cpu/armv8/start.o
 .rela.data.stdio_names
                0x0000000040299550       0x48 arch/arm/cpu/armv8/start.o
 .rela.rodata.CSWTCH.11
                0x0000000040299598       0xc0 arch/arm/cpu/armv8/start.o
 .rela.u_boot_list_2_part_driver_2_dos
                0x0000000040299658       0x60 arch/arm/cpu/armv8/start.o
 .rela.u_boot_list_2_part_driver_2_a_efi
                0x00000000402996b8       0x60 arch/arm/cpu/armv8/start.o
 .rela.rodata.root_info
                0x0000000040299718       0x18 arch/arm/cpu/armv8/start.o
 .rela.rodata.generic_simple_bus_ids
                0x0000000040299730       0x30 arch/arm/cpu/armv8/start.o
 .rela.rodata.imx_pinctrl_ops
                0x0000000040299760       0x18 arch/arm/cpu/armv8/start.o
 .rela.rodata.imx8m_pinctrl_match
                0x0000000040299778       0x60 arch/arm/cpu/armv8/start.o
 .rela.rodata.if_typename_str
                0x00000000402997d8      0x120 arch/arm/cpu/armv8/start.o
 .rela.rodata.bootm_args.6580
                0x00000000402998f8       0x30 arch/arm/cpu/armv8/start.o
 .rela.rodata.commands
                0x0000000040299928      0x240 arch/arm/cpu/armv8/start.o
 .rela.rodata.names.8633
                0x0000000040299b68      0x150 arch/arm/cpu/armv8/start.o
 .rela.rodata.mmc_blk_ops
                0x0000000040299cb8       0x60 arch/arm/cpu/armv8/start.o
 .rela.rodata.fsl_esdhc_ids
                0x0000000040299d18      0x168 arch/arm/cpu/armv8/start.o
 .rela.rodata.fsl_esdhc_ops
                0x0000000040299e80       0x60 arch/arm/cpu/armv8/start.o
 .rela.rodata.nxp_tmu_ids
                0x0000000040299ee0       0x30 arch/arm/cpu/armv8/start.o
 .rela.rodata.nxp_tmu_ops
                0x0000000040299f10       0x18 arch/arm/cpu/armv8/start.o
 .rela.u_boot_list_2_driver_2_root_driver
                0x0000000040299f28       0x18 arch/arm/cpu/armv8/start.o
 .rela.u_boot_list_2_uclass_2_root
                0x0000000040299f40       0x18 arch/arm/cpu/armv8/start.o
 .rela.u_boot_list_2_driver_2_simple_bus_drv
                0x0000000040299f58       0x30 arch/arm/cpu/armv8/start.o
 .rela.u_boot_list_2_uclass_2_simple_bus
                0x0000000040299f88       0x30 arch/arm/cpu/armv8/start.o
 .rela.u_boot_list_2_driver_2_pinconfig_generic
                0x0000000040299fb8       0x18 arch/arm/cpu/armv8/start.o
 .rela.u_boot_list_2_uclass_2_pinconfig
                0x0000000040299fd0       0x30 arch/arm/cpu/armv8/start.o
 .rela.u_boot_list_2_uclass_2_pinctrl
                0x000000004029a000       0x30 arch/arm/cpu/armv8/start.o
 .rela.u_boot_list_2_driver_2_imx8mq_pinctrl
                0x000000004029a030       0x78 arch/arm/cpu/armv8/start.o
 .rela.u_boot_list_2_uclass_2_blk
                0x000000004029a0a8       0x30 arch/arm/cpu/armv8/start.o
 .rela.data.block_cache
                0x000000004029a0d8       0x30 arch/arm/cpu/armv8/start.o
 .rela.data.fastboot_common_var
                0x000000004029a108      0x138 arch/arm/cpu/armv8/start.o
 .rela.u_boot_list_2_driver_2_mmc
                0x000000004029a240       0x18 arch/arm/cpu/armv8/start.o
 .rela.u_boot_list_2_driver_2_mmc_blk
                0x000000004029a258       0x60 arch/arm/cpu/armv8/start.o
 .rela.u_boot_list_2_uclass_2_mmc
                0x000000004029a2b8       0x18 arch/arm/cpu/armv8/start.o
 .rela.u_boot_list_2_driver_2_fsl_esdhc
                0x000000004029a2d0       0x78 arch/arm/cpu/armv8/start.o
 .rela.u_boot_list_2_uclass_2_thermal
                0x000000004029a348       0x18 arch/arm/cpu/armv8/start.o
 .rela.u_boot_list_2_driver_2_nxp_tmu
                0x000000004029a360       0x90 arch/arm/cpu/armv8/start.o
 .rela.rodata.gpio_function
                0x000000004029a3f0       0x78 arch/arm/cpu/armv8/start.o
 .rela.rodata.gpio_mxc_ops
                0x000000004029a468       0x78 arch/arm/cpu/armv8/start.o
 .rela.rodata.mxc_gpio_ids
                0x000000004029a4e0       0x18 arch/arm/cpu/armv8/start.o
 .rela.u_boot_list_2_uclass_2_gpio
                0x000000004029a4f8       0x60 arch/arm/cpu/armv8/start.o
 .rela.u_boot_list_2_driver_2_gpio_mxc
                0x000000004029a558       0x78 arch/arm/cpu/armv8/start.o
 .rela.rodata.mxc_i2c_ids
                0x000000004029a5d0       0x30 arch/arm/cpu/armv8/start.o
 .rela.rodata.mxc_i2c_ops
                0x000000004029a600       0x48 arch/arm/cpu/armv8/start.o
 .rela.u_boot_list_2_driver_2_i2c_generic_chip_drv
                0x000000004029a648       0x18 arch/arm/cpu/armv8/start.o
 .rela.u_boot_list_2_uclass_2_i2c
                0x000000004029a660       0x78 arch/arm/cpu/armv8/start.o
 .rela.u_boot_list_2_uclass_2_i2c_generic
                0x000000004029a6d8       0x18 arch/arm/cpu/armv8/start.o
 .rela.u_boot_list_2_driver_2_i2c_mxc
                0x000000004029a6f0       0x60 arch/arm/cpu/armv8/start.o
 .rela.rodata.spi_flash_std_ids
                0x000000004029a750       0x30 arch/arm/cpu/armv8/start.o
 .rela.rodata.spi_flash_std_ops
                0x000000004029a780       0x60 arch/arm/cpu/armv8/start.o
 .rela.rodata.spi_nor_ids
                0x000000004029a7e0      0x4f8 arch/arm/cpu/armv8/start.o
 .rela.u_boot_list_2_uclass_2_spi_nor
                0x000000004029acd8       0x30 arch/arm/cpu/armv8/start.o
 .rela.u_boot_list_2_driver_2_spi_flash_std
                0x000000004029ad08       0x78 arch/arm/cpu/armv8/start.o
 .rela.rodata.fecmxc_ids
                0x000000004029ad80       0xa8 arch/arm/cpu/armv8/start.o
 .rela.rodata.fecmxc_ops
                0x000000004029ae28       0xa8 arch/arm/cpu/armv8/start.o
 .rela.u_boot_list_2_driver_2_fecmxc_gem
                0x000000004029aed0       0x90 arch/arm/cpu/armv8/start.o
 .rela.rodata.phy_interface_strings
                0x000000004029af60      0x210 arch/arm/cpu/armv8/start.o
 .rela.data.genphy_driver
                0x000000004029b170       0x60 arch/arm/cpu/armv8/start.o
 .rela.data.phy_drivers
                0x000000004029b1d0       0x30 arch/arm/cpu/armv8/start.o
 .rela.data.AR8021_driver
                0x000000004029b200       0x60 arch/arm/cpu/armv8/start.o
 .rela.data.AR8031_driver
                0x000000004029b260       0x60 arch/arm/cpu/armv8/start.o
 .rela.data.AR8035_driver
                0x000000004029b2c0       0x60 arch/arm/cpu/armv8/start.o
 .rela.u_boot_list_2_uclass_2_pmic
                0x000000004029b320       0x30 arch/arm/cpu/armv8/start.o
 .rela.rodata.fixed_regulator_ids
                0x000000004029b350       0x18 arch/arm/cpu/armv8/start.o
 .rela.rodata.fixed_regulator_ops
                0x000000004029b368       0x60 arch/arm/cpu/armv8/start.o
 .rela.rodata.gpio_regulator_ids
                0x000000004029b3c8       0x18 arch/arm/cpu/armv8/start.o
 .rela.rodata.gpio_regulator_ops
                0x000000004029b3e0       0x30 arch/arm/cpu/armv8/start.o
 .rela.u_boot_list_2_uclass_2_regulator
                0x000000004029b410       0x48 arch/arm/cpu/armv8/start.o
 .rela.u_boot_list_2_driver_2_fixed_regulator
                0x000000004029b458       0x60 arch/arm/cpu/armv8/start.o
 .rela.u_boot_list_2_driver_2_gpio_regulator
                0x000000004029b4b8       0x60 arch/arm/cpu/armv8/start.o
 .rela.u_boot_list_2_env_clbk_2_baudrate
                0x000000004029b518       0x30 arch/arm/cpu/armv8/start.o
 .rela.data.mxc_serial_drv
                0x000000004029b548       0x90 arch/arm/cpu/armv8/start.o
 .rela.rodata.fsl_qspi_ids
                0x000000004029b5d8       0xf0 arch/arm/cpu/armv8/start.o
 .rela.rodata.fsl_qspi_ops
                0x000000004029b6c8       0x78 arch/arm/cpu/armv8/start.o
 .rela.u_boot_list_2_driver_2_spi_generic_drv
                0x000000004029b740       0x18 arch/arm/cpu/armv8/start.o
 .rela.u_boot_list_2_uclass_2_spi
                0x000000004029b758       0x78 arch/arm/cpu/armv8/start.o
 .rela.u_boot_list_2_uclass_2_spi_generic
                0x000000004029b7d0       0x18 arch/arm/cpu/armv8/start.o
 .rela.u_boot_list_2_driver_2_fsl_qspi
                0x000000004029b7e8       0x90 arch/arm/cpu/armv8/start.o
 .rela.rodata.usb_dr_modes
                0x000000004029b878       0x60 arch/arm/cpu/armv8/start.o
 .rela.rodata.dwc3_gadget_ep0_ops
                0x000000004029b8d8       0xc0 arch/arm/cpu/armv8/start.o
 .rela.rodata.dwc3_gadget_ep_ops
                0x000000004029b998       0xc0 arch/arm/cpu/armv8/start.o
 .rela.rodata.dwc3_gadget_ops
                0x000000004029ba58       0x90 arch/arm/cpu/armv8/start.o
 .rela.data.dwc3_list
                0x000000004029bae8       0x30 arch/arm/cpu/armv8/start.o
 .rela.data.composite_driver
                0x000000004029bb18       0xa8 arch/arm/cpu/armv8/start.o
 .rela.data.g_dnl_composite_strings
                0x000000004029bbc0       0x18 arch/arm/cpu/armv8/start.o
 .rela.data.g_dnl_driver
                0x000000004029bbd8       0x60 arch/arm/cpu/armv8/start.o
 .rela.data.g_dnl_string_defs
                0x000000004029bc38       0x48 arch/arm/cpu/armv8/start.o
 .rela.data.g_dnl_string_tab
                0x000000004029bc80       0x18 arch/arm/cpu/armv8/start.o
 .rela.u_boot_list_2_env_clbk_2_serialno
                0x000000004029bc98       0x30 arch/arm/cpu/armv8/start.o
 .rela.data.fsg_fs_function
                0x000000004029bcc8       0x48 arch/arm/cpu/armv8/start.o
 .rela.data.fsg_hs_function
                0x000000004029bd10       0x48 arch/arm/cpu/armv8/start.o
 .rela.data.fsg_strings
                0x000000004029bd58       0x18 arch/arm/cpu/armv8/start.o
 .rela.data.fsg_strings_array
                0x000000004029bd70       0x18 arch/arm/cpu/armv8/start.o
 .rela.data.fsg_stringtab
                0x000000004029bd88       0x18 arch/arm/cpu/armv8/start.o
 .rela.u_boot_list_2_g_dnl_bind_callbacks_2___usb_function_name_usb_dnl_ums
                0x000000004029bda0       0x30 arch/arm/cpu/armv8/start.o
 .rela.data.fastboot_string_defs
                0x000000004029bdd0       0x18 arch/arm/cpu/armv8/start.o
 .rela.data.fastboot_strings
                0x000000004029bde8       0x18 arch/arm/cpu/armv8/start.o
 .rela.data.fb_ext_prop
                0x000000004029be00       0x30 arch/arm/cpu/armv8/start.o
 .rela.data.fb_fs_function
                0x000000004029be30       0x48 arch/arm/cpu/armv8/start.o
 .rela.data.fb_hs_function
                0x000000004029be78       0x48 arch/arm/cpu/armv8/start.o
 .rela.data.fb_os_desc
                0x000000004029bec0       0x18 arch/arm/cpu/armv8/start.o
 .rela.data.fb_os_desc_table
                0x000000004029bed8       0x18 arch/arm/cpu/armv8/start.o
 .rela.data.fb_ss_function
                0x000000004029bef0       0x78 arch/arm/cpu/armv8/start.o
 .rela.data.stringtab_fastboot
                0x000000004029bf68       0x18 arch/arm/cpu/armv8/start.o
 .rela.u_boot_list_2_g_dnl_bind_callbacks_2___usb_function_name_usb_dnl_fastboot
                0x000000004029bf80       0x30 arch/arm/cpu/armv8/start.o
 .rela.data.udc_list
                0x000000004029bfb0       0x30 arch/arm/cpu/armv8/start.o
 .rela.u_boot_list_2_uclass_2_usb_gadget_generic
                0x000000004029bfe0       0x18 arch/arm/cpu/armv8/start.o
 .rela.rodata.CSWTCH.31
                0x000000004029bff8       0x48 arch/arm/cpu/armv8/start.o
 .rela.rodata.xhci_dwc3_ids
                0x000000004029c040       0x18 arch/arm/cpu/armv8/start.o
 .rela.rodata.xhci_usb_ids
                0x000000004029c058       0x18 arch/arm/cpu/armv8/start.o
 .rela.u_boot_list_2_driver_2_usb_dev_generic_drv
                0x000000004029c070       0x18 arch/arm/cpu/armv8/start.o
 .rela.u_boot_list_2_uclass_2_usb
                0x000000004029c088       0x60 arch/arm/cpu/armv8/start.o
 .rela.u_boot_list_2_uclass_2_usb_dev_generic
                0x000000004029c0e8       0x18 arch/arm/cpu/armv8/start.o
 .rela.data.xhci_usb_ops
                0x000000004029c100       0x90 arch/arm/cpu/armv8/start.o
 .rela.u_boot_list_2_driver_2_xhci_dwc3
                0x000000004029c190       0x78 arch/arm/cpu/armv8/start.o
 .rela.u_boot_list_2_driver_2_xhci_imx8m
                0x000000004029c208       0x78 arch/arm/cpu/armv8/start.o
 .rela.data.env_htab
                0x000000004029c280       0x18 arch/arm/cpu/armv8/start.o
 .rela.u_boot_list_2_env_clbk_2_callbacks
                0x000000004029c298       0x30 arch/arm/cpu/armv8/start.o
 .rela.u_boot_list_2_env_clbk_2_flags
                0x000000004029c2c8       0x30 arch/arm/cpu/armv8/start.o
 .rela.u_boot_list_2_env_driver_2_mmc
                0x000000004029c2f8       0x48 arch/arm/cpu/armv8/start.o
 .rela.data.fstypes
                0x000000004029c340      0x390 arch/arm/cpu/armv8/start.o
 .rela.rodata.driver_ops
                0x000000004029c6d0       0x48 arch/arm/cpu/armv8/start.o
 .rela.rodata.efi_blk_ops
                0x000000004029c718       0x30 arch/arm/cpu/armv8/start.o
 .rela.rodata.efi_device_path_to_text
                0x000000004029c748       0x30 arch/arm/cpu/armv8/start.o
 .rela.rodata.efi_device_path_utilities
                0x000000004029c778       0xc0 arch/arm/cpu/armv8/start.o
 .rela.rodata.efi_file_handle_protocol
                0x000000004029c838       0xf0 arch/arm/cpu/armv8/start.o
 .rela.rodata.efi_runtime_detach_list
                0x000000004029c928      0x180 arch/arm/cpu/armv8/start.o
 .rela.rodata.efi_unicode_collation_protocol
                0x000000004029caa8       0xa8 arch/arm/cpu/armv8/start.o
 .rela.rodata.fdt_errtable
                0x000000004029cb50      0x198 arch/arm/cpu/armv8/start.o
 .rela.rodata.smbios_write_funcs
                0x000000004029cce8       0xa8 arch/arm/cpu/armv8/start.o
 .rela.u_boot_list_2_uclass_2_efi
                0x000000004029cd90       0x48 arch/arm/cpu/armv8/start.o
 .rela.u_boot_list_2_driver_2_efi_blk
                0x000000004029cdd8       0x30 arch/arm/cpu/armv8/start.o
 .rela.u_boot_list_2_driver_2_efi_block
                0x000000004029ce08       0x30 arch/arm/cpu/armv8/start.o
 .rela.data.efi_boot_services
                0x000000004029ce38      0x408 arch/arm/cpu/armv8/start.o
 .rela.data.efi_events
                0x000000004029d240       0x30 arch/arm/cpu/armv8/start.o
 .rela.data.efi_obj_list
                0x000000004029d270       0x30 arch/arm/cpu/armv8/start.o
 .rela.data.cin_notify_functions
                0x000000004029d2a0       0x30 arch/arm/cpu/armv8/start.o
 .rela.data.efi_con_in
                0x000000004029d2d0       0x30 arch/arm/cpu/armv8/start.o
 .rela.data.efi_con_in_ex
                0x000000004029d300       0x78 arch/arm/cpu/armv8/start.o
 .rela.data.efi_con_out
                0x000000004029d378       0xf0 arch/arm/cpu/armv8/start.o
 .rela.data.efi_mem
                0x000000004029d468       0x30 arch/arm/cpu/armv8/start.o
 .rela.data.efi_runtime_mmio
                0x000000004029d498       0x30 arch/arm/cpu/armv8/start.o
 .rela.u_boot_list_2_env_clbk_2_ethaddr
                0x000000004029d4c8       0x30 arch/arm/cpu/armv8/start.o
 .rela.u_boot_list_2_uclass_2_eth
                0x000000004029d4f8       0x78 arch/arm/cpu/armv8/start.o
 .rela.u_boot_list_2_env_clbk_2_gatewayip
                0x000000004029d570       0x30 arch/arm/cpu/armv8/start.o
 .rela.u_boot_list_2_env_clbk_2_ipaddr
                0x000000004029d5a0       0x30 arch/arm/cpu/armv8/start.o
 .rela.u_boot_list_2_env_clbk_2_netmask
                0x000000004029d5d0       0x30 arch/arm/cpu/armv8/start.o
 .rela.u_boot_list_2_env_clbk_2_nvlan
                0x000000004029d600       0x30 arch/arm/cpu/armv8/start.o
 .rela.u_boot_list_2_env_clbk_2_serverip
                0x000000004029d630       0x30 arch/arm/cpu/armv8/start.o
 .rela.u_boot_list_2_env_clbk_2_vlan
                0x000000004029d660       0x30 arch/arm/cpu/armv8/start.o

.rel_dyn_end    0x000000004029d690        0x0
 *(.__rel_dyn_end)
 .__rel_dyn_end
                0x000000004029d690        0x0 arch/arm/lib/built-in.o
                0x000000004029d690                _end = .
                0x000000004029d690                . = ALIGN (0x8)

.bss_start      0x000000004029d690        0x0
 *(.__bss_start)
 .__bss_start   0x000000004029d690        0x0 arch/arm/lib/built-in.o
                0x000000004029d690                __bss_start

.bss            0x000000004029d6c0    0x1bc50
 *(.bss*)
 .bss.params    0x000000004029d6c0        0x8 arch/arm/lib/built-in.o
 .bss.bootefi_device_path
                0x000000004029d6c8        0x8 cmd/built-in.o
 .bss.bootefi_image_path
                0x000000004029d6d0        0x8 cmd/built-in.o
 .bss.data.6727
                0x000000004029d6d8      0x400 cmd/built-in.o
 .bss.working_fdt
                0x000000004029dad8        0x8 cmd/built-in.o
                0x000000004029dad8                working_fdt
 .bss.i2c_cur_bus
                0x000000004029dae0        0x8 cmd/built-in.o
 .bss.i2c_dp_last_addr
                0x000000004029dae8        0x4 cmd/built-in.o
 .bss.i2c_dp_last_alen
                0x000000004029daec        0x4 cmd/built-in.o
 .bss.i2c_dp_last_chip
                0x000000004029daf0        0x4 cmd/built-in.o
 .bss.i2c_mm_last_addr
                0x000000004029daf4        0x4 cmd/built-in.o
 .bss.i2c_mm_last_alen
                0x000000004029daf8        0x4 cmd/built-in.o
 .bss.i2c_mm_last_chip
                0x000000004029dafc        0x4 cmd/built-in.o
 .bss.a_b       0x000000004029db00       0x18 cmd/built-in.o
 .bss.bin_start_address
                0x000000004029db18        0x8 cmd/built-in.o
 .bss.his_eol   0x000000004029db20        0x1 cmd/built-in.o
 .bss.his_pad_char
                0x000000004029db21        0x1 cmd/built-in.o
 *fill*         0x000000004029db22        0x2 
 .bss.his_pad_count
                0x000000004029db24        0x4 cmd/built-in.o
 .bss.his_quote
                0x000000004029db28        0x1 cmd/built-in.o
 *fill*         0x000000004029db29        0x3 
 .bss.k_data_escape
                0x000000004029db2c        0x4 cmd/built-in.o
 .bss.k_data_escape_saved
                0x000000004029db30        0x4 cmd/built-in.o
 *fill*         0x000000004029db34        0x4 
 .bss.os_data_addr
                0x000000004029db38        0x8 cmd/built-in.o
 .bss.os_data_addr_saved
                0x000000004029db40        0x8 cmd/built-in.o
 .bss.os_data_char
                0x000000004029db48        0x8 cmd/built-in.o
 .bss.os_data_init
                0x000000004029db50        0x8 cmd/built-in.o
 .bss.os_data_state
                0x000000004029db58        0x4 cmd/built-in.o
 .bss.os_data_state_saved
                0x000000004029db5c        0x4 cmd/built-in.o
 .bss.send_parms
                0x000000004029db60       0x14 cmd/built-in.o
 *fill*         0x000000004029db74        0x4 
 .bss.send_ptr  0x000000004029db78        0x8 cmd/built-in.o
 .bss.base_address
                0x000000004029db80        0x8 cmd/built-in.o
 .bss.dp_last_addr
                0x000000004029db88        0x8 cmd/built-in.o
 .bss.dp_last_size
                0x000000004029db90        0x8 cmd/built-in.o
 .bss.mm_last_addr
                0x000000004029db98        0x8 cmd/built-in.o
 .bss.mm_last_size
                0x000000004029dba0        0x8 cmd/built-in.o
 .bss.last_addr_hi
                0x000000004029dba8        0x8 cmd/built-in.o
 .bss.last_addr_lo
                0x000000004029dbb0        0x8 cmd/built-in.o
 .bss.last_data
                0x000000004029dbb8        0x8 cmd/built-in.o
 .bss.last_mask
                0x000000004029dbc0        0x4 cmd/built-in.o
 .bss.last_op   0x000000004029dbc4        0x4 cmd/built-in.o
 .bss.last_reg_hi
                0x000000004029dbc8        0x8 cmd/built-in.o
 .bss.last_reg_lo
                0x000000004029dbd0        0x8 cmd/built-in.o
 .bss.last_devad_hi
                0x000000004029dbd8        0x4 cmd/built-in.o
 .bss.last_devad_lo
                0x000000004029dbdc        0x4 cmd/built-in.o
 .bss.currdev   0x000000004029dbe0       0x10 cmd/built-in.o
 .bss.flash     0x000000004029dbf0        0x8 cmd/built-in.o
 .bss.ums       0x000000004029dbf8        0x8 cmd/built-in.o
 .bss.ums_count
                0x000000004029dc00        0x4 cmd/built-in.o
 .bss.buf.7039  0x000000004029dc04       0x28 common/built-in.o
 .bss.do_repeat
                0x000000004029dc2c        0x4 common/built-in.o
 .bss.flag_repeat
                0x000000004029dc30        0x4 common/built-in.o
 *fill*         0x000000004029dc34        0x4 
 .bss.ifs       0x000000004029dc38        0x8 common/built-in.o
 .bss.last_return_code
                0x000000004029dc40        0x4 common/built-in.o
 .bss.map       0x000000004029dc44      0x100 common/built-in.o
 .bss.the_command.6839
                0x000000004029dd44      0x401 common/built-in.o
 *fill*         0x000000004029e145        0x3 
 .bss.top_vars  0x000000004029e148        0x8 common/built-in.o
 .bss.stored_bootdelay
                0x000000004029e150        0x4 common/built-in.o
 *fill*         0x000000004029e154        0x4 
 .bss.monitor_flash_len
                0x000000004029e158        0x8 common/built-in.o
                0x000000004029e158                monitor_flash_len
 .bss.images    0x000000004029e160      0x280 common/built-in.o
                0x000000004029e160                images
 .bss.current_mii
                0x000000004029e3e0        0x8 common/built-in.o
 .bss.mii_devs  0x000000004029e3e8       0x10 common/built-in.o
 .bss.usb_started
                0x000000004029e3f8        0x1 common/built-in.o
                0x000000004029e3f8                usb_started
 *fill*         0x000000004029e3f9        0x3 
 .bss.running.9081
                0x000000004029e3fc        0x4 common/built-in.o
 .bss.CBWTag    0x000000004029e400        0x4 common/built-in.o
 *fill*         0x000000004029e404       0x3c 
 .bss.usb_ccb   0x000000004029e440      0x100 common/built-in.o
 .bss.usb_max_devs
                0x000000004029e540        0x4 common/built-in.o
 .bss.console_buffer
                0x000000004029e544      0x401 common/built-in.o
                0x000000004029e544                console_buffer
 *fill*         0x000000004029e945        0x3 
 .bss.hist_add_idx
                0x000000004029e948        0x4 common/built-in.o
 .bss.hist_lines
                0x000000004029e94c     0x5014 common/built-in.o
 .bss.hist_list
                0x00000000402a3960       0xa0 common/built-in.o
 .bss.hist_max  0x00000000402a3a00        0x4 common/built-in.o
 .bss.hist_num  0x00000000402a3a04        0x4 common/built-in.o
 .bss.initted.6705
                0x00000000402a3a08        0x4 common/built-in.o
 .bss.ctrlc_disabled
                0x00000000402a3a0c        0x4 common/built-in.o
 .bss.ctrlc_was_pressed
                0x00000000402a3a10        0x4 common/built-in.o
 .bss.current_mallinfo
                0x00000000402a3a14       0x28 common/built-in.o
 *fill*         0x00000000402a3a3c        0x4 
 .bss.max_sbrked_mem
                0x00000000402a3a40        0x8 common/built-in.o
 .bss.max_total_mem
                0x00000000402a3a48        0x8 common/built-in.o
 .bss.mem_malloc_brk
                0x00000000402a3a50        0x8 common/built-in.o
                0x00000000402a3a50                mem_malloc_brk
 .bss.mem_malloc_end
                0x00000000402a3a58        0x8 common/built-in.o
                0x00000000402a3a58                mem_malloc_end
 .bss.mem_malloc_start
                0x00000000402a3a60        0x8 common/built-in.o
                0x00000000402a3a60                mem_malloc_start
 .bss.top_pad   0x00000000402a3a68        0x8 common/built-in.o
 .bss.andr_tmp_str
                0x00000000402a3a70      0x201 common/built-in.o
 *fill*         0x00000000402a3c71        0x7 
 .bss.devs      0x00000000402a3c78       0x70 common/built-in.o
 .bss.stdio_devices
                0x00000000402a3ce8       0x18 common/built-in.o
                0x00000000402a3ce8                stdio_devices
 .bss.env_complete_buf
                0x00000000402a3d00      0x200 common/built-in.o
 .bss.tmp_buf   0x00000000402a3f00      0x401 common/built-in.o
 *fill*         0x00000000402a4301        0x7 
 .bss.xyz       0x00000000402a4308      0x448 common/built-in.o
 .bss.name.7290
                0x00000000402a4750       0x25 disk/built-in.o
 *fill*         0x00000000402a4775        0x3 
 .bss.imx8mq_pinctrl_soc_info
                0x00000000402a4778       0x18 drivers/built-in.o
 .bss.boot_addr_start.6579
                0x00000000402a4790       0x14 drivers/built-in.o
 *fill*         0x00000000402a47a4        0x4 
 .bss.fastboot_buf_addr
                0x00000000402a47a8        0x8 drivers/built-in.o
                0x00000000402a47a8                fastboot_buf_addr
 .bss.fastboot_buf_size
                0x00000000402a47b0        0x4 drivers/built-in.o
                0x00000000402a47b0                fastboot_buf_size
 *fill*         0x00000000402a47b4        0x4 
 .bss.fastboot_progress_callback
                0x00000000402a47b8        0x8 drivers/built-in.o
                0x00000000402a47b8                fastboot_progress_callback
 .bss.metrics   0x00000000402a47c0       0x1c drivers/built-in.o
                0x00000000402a47c0                metrics
 .bss.fastboot_bytes_expected
                0x00000000402a47dc        0x4 drivers/built-in.o
 .bss.fastboot_bytes_received
                0x00000000402a47e0        0x4 drivers/built-in.o
 .bss.g_a_cmd_buff
                0x00000000402a47e4       0x40 drivers/built-in.o
 .bss.boot_dev_part.10252
                0x00000000402a4824       0x20 drivers/built-in.o
 .bss.serial    0x00000000402a4844       0x20 drivers/built-in.o
 .bss.g_pcount  0x00000000402a4864        0x4 drivers/built-in.o
                0x00000000402a4864                g_pcount
 .bss.g_ptable  0x00000000402a4868      0xc00 drivers/built-in.o
                0x00000000402a4868                g_ptable
 .bss.initialized.9182
                0x00000000402a5468        0x4 drivers/built-in.o
 *fill*         0x00000000402a546c        0x4 
 .bss.serial_current
                0x00000000402a5470        0x8 drivers/serial/built-in.o
 .bss.serial_devices
                0x00000000402a5478        0x8 drivers/serial/built-in.o
 .bss.wr_sfaddr.8773
                0x00000000402a5480        0x4 drivers/spi/built-in.o
 .bss.__warned.9169
                0x00000000402a5484        0x1 drivers/usb/dwc3/built-in.o
 .bss.__warned.9194
                0x00000000402a5485        0x1 drivers/usb/dwc3/built-in.o
 .bss.__warned.9409
                0x00000000402a5486        0x1 drivers/usb/dwc3/built-in.o
 .bss.__warned.9467
                0x00000000402a5487        0x1 drivers/usb/dwc3/built-in.o
 .bss.__warned.9490
                0x00000000402a5488        0x1 drivers/usb/dwc3/built-in.o
 .bss.__warned.9346
                0x00000000402a5489        0x1 drivers/usb/dwc3/built-in.o
 .bss.__warned.9360
                0x00000000402a548a        0x1 drivers/usb/dwc3/built-in.o
 *fill*         0x00000000402a548b        0x1 
 .bss.epnum     0x00000000402a548c        0x4 drivers/usb/gadget/built-in.o
 .bss.composite
                0x00000000402a5490        0x8 drivers/usb/gadget/built-in.o
 .bss.g_dnl_detach_request
                0x00000000402a5498        0x1 drivers/usb/gadget/built-in.o
 .bss.g_dnl_serial
                0x00000000402a5499      0x100 drivers/usb/gadget/built-in.o
 *fill*         0x00000000402a5599        0x3 
 .bss.controller_index
                0x00000000402a559c        0x4 drivers/usb/gadget/built-in.o
 .bss.state.8882
                0x00000000402a55a0        0x4 drivers/usb/gadget/built-in.o
 *fill*         0x00000000402a55a4        0x4 
 .bss.the_fsg_common
                0x00000000402a55a8        0x8 drivers/usb/gadget/built-in.o
 .bss.ums       0x00000000402a55b0        0x8 drivers/usb/gadget/built-in.o
 .bss.ums_count
                0x00000000402a55b8        0x4 drivers/usb/gadget/built-in.o
 .bss.unknown.9138
                0x00000000402a55bc       0x10 drivers/usb/gadget/built-in.o
 *fill*         0x00000000402a55cc        0x4 
 .bss.fastboot_func
                0x00000000402a55d0        0x8 drivers/usb/gadget/built-in.o
 .bss.asynch_allowed
                0x00000000402a55d8        0x1 drivers/usb/host/built-in.o
 *fill*         0x00000000402a55d9        0x7 
 .bss.imx8m_xhci
                0x00000000402a55e0       0x18 drivers/usb/host/built-in.o
 .bss.callback_list
                0x00000000402a55f8        0x8 env/built-in.o
 .bss.flags_list
                0x00000000402a5600        0x8 env/built-in.o
 .bss.fs_dev_desc
                0x00000000402a5608        0x8 fs/built-in.o
 .bss.fs_dev_part
                0x00000000402a5610        0x4 fs/built-in.o
 *fill*         0x00000000402a5614        0x4 
 .bss.fs_partition
                0x00000000402a5618       0x88 fs/built-in.o
 .bss.fs_type   0x00000000402a56a0        0x4 fs/built-in.o
 *fill*         0x00000000402a56a4        0x4 
 .bss.ext_fs    0x00000000402a56a8       0x68 fs/built-in.o
                0x00000000402a56a8                ext_fs
 .bss.ext4fs_file
                0x00000000402a5710        0x8 fs/built-in.o
                0x00000000402a5710                ext4fs_file
 .bss.ext4fs_indir1_block
                0x00000000402a5718        0x8 fs/built-in.o
                0x00000000402a5718                ext4fs_indir1_block
 .bss.ext4fs_indir1_size
                0x00000000402a5720        0x4 fs/built-in.o
                0x00000000402a5720                ext4fs_indir1_size
 *fill*         0x00000000402a5724        0x4 
 .bss.ext4fs_indir2_block
                0x00000000402a5728        0x8 fs/built-in.o
                0x00000000402a5728                ext4fs_indir2_block
 .bss.ext4fs_indir2_size
                0x00000000402a5730        0x4 fs/built-in.o
                0x00000000402a5730                ext4fs_indir2_size
 *fill*         0x00000000402a5734        0x4 
 .bss.ext4fs_indir3_block
                0x00000000402a5738        0x8 fs/built-in.o
                0x00000000402a5738                ext4fs_indir3_block
 .bss.ext4fs_indir3_size
                0x00000000402a5740        0x4 fs/built-in.o
                0x00000000402a5740                ext4fs_indir3_size
 *fill*         0x00000000402a5744        0x4 
 .bss.ext4fs_root
                0x00000000402a5748        0x8 fs/built-in.o
                0x00000000402a5748                ext4fs_root
 .bss.g_parent_inode
                0x00000000402a5750        0x8 fs/built-in.o
                0x00000000402a5750                g_parent_inode
 .bss.symlinknest
                0x00000000402a5758        0x4 fs/built-in.o
 *fill*         0x00000000402a575c        0x4 
 .bss.part_info
                0x00000000402a5760        0x8 fs/built-in.o
 .bss.part_offset
                0x00000000402a5768        0x8 fs/built-in.o
                0x00000000402a5768                part_offset
 .bss.dirty_block_ptr
                0x00000000402a5770      0x320 fs/built-in.o
                0x00000000402a5770                dirty_block_ptr
 .bss.gd_index  0x00000000402a5a90        0x4 fs/built-in.o
                0x00000000402a5a90                gd_index
 .bss.gindex    0x00000000402a5a94        0x4 fs/built-in.o
                0x00000000402a5a94                gindex
 .bss.journal_ptr
                0x00000000402a5a98      0x320 fs/built-in.o
                0x00000000402a5a98                journal_ptr
 .bss.jrnl_blk_idx
                0x00000000402a5db8        0x4 fs/built-in.o
                0x00000000402a5db8                jrnl_blk_idx
 *fill*         0x00000000402a5dbc        0x4 
 .bss.prev_node
                0x00000000402a5dc0        0x8 fs/built-in.o
 .bss.revk_blk_list
                0x00000000402a5dc8        0x8 fs/built-in.o
 .bss.cur_dev   0x00000000402a5dd0        0x8 fs/built-in.o
 .bss.cur_part_info
                0x00000000402a5dd8       0x88 fs/built-in.o
 *fill*         0x00000000402a5e60       0x20 
 .bss.tmpbuf_cluster
                0x00000000402a5e80    0x10000 fs/built-in.o
 .bss.total_sector
                0x00000000402b5e80        0x4 fs/built-in.o
 *fill*         0x00000000402b5e84        0x4 
 .bss.rs        0x00000000402b5e88        0x8 lib/built-in.o
 .bss.app_gd    0x00000000402b5e90        0x8 lib/built-in.o
 .bss.efi_gd    0x00000000402b5e98        0x8 lib/built-in.o
 .bss.mono.8986
                0x00000000402b5ea0        0x8 lib/built-in.o
 .bss.ret.8890  0x00000000402b5ea8        0x8 lib/built-in.o
 .bss.console_timer_event
                0x00000000402b5eb0        0x8 lib/built-in.o
 .bss.key_available
                0x00000000402b5eb8        0x1 lib/built-in.o
 *fill*         0x00000000402b5eb9        0x3 
 .bss.next_key  0x00000000402b5ebc        0xc lib/built-in.o
 .bss.efi_memory_map_key
                0x00000000402b5ec8        0x8 lib/built-in.o
                0x00000000402b5ec8                efi_memory_map_key
 .bss.efi_variables_list
                0x00000000402b5ed0        0x8 lib/built-in.o
 .bss.watchdog_timer_event
                0x00000000402b5ed8        0x8 lib/built-in.o
 .bss.dhcp_ack  0x00000000402b5ee0        0x8 lib/built-in.o
 .bss.network_timer_event
                0x00000000402b5ee8        0x8 lib/built-in.o
 .bss.new_rx_packet
                0x00000000402b5ef0        0x1 lib/built-in.o
 *fill*         0x00000000402b5ef1        0x7 
 .bss.new_tx_packet
                0x00000000402b5ef8        0x8 lib/built-in.o
 .bss.transmit_buffer
                0x00000000402b5f00        0x8 lib/built-in.o
 .bss.wait_for_packet
                0x00000000402b5f08        0x8 lib/built-in.o
 .bss.errno     0x00000000402b5f10        0x4 lib/built-in.o
                0x00000000402b5f10                errno
 *fill*         0x00000000402b5f14        0x4 
 .bss.___strtok
                0x00000000402b5f18        0x8 lib/built-in.o
                0x00000000402b5f18                ___strtok
 .bss.local.8573
                0x00000000402b5f20       0x16 lib/built-in.o
 *fill*         0x00000000402b5f36        0x2 
 .bss.arp_tx_packet
                0x00000000402b5f38        0x8 net/built-in.o
                0x00000000402b5f38                arp_tx_packet
 .bss.arp_tx_packet_buf
                0x00000000402b5f40      0x640 net/built-in.o
 .bss.arp_wait_packet_ethaddr
                0x00000000402b6580        0x8 net/built-in.o
                0x00000000402b6580                arp_wait_packet_ethaddr
 .bss.arp_wait_timer_start
                0x00000000402b6588        0x8 net/built-in.o
                0x00000000402b6588                arp_wait_timer_start
 .bss.arp_wait_try
                0x00000000402b6590        0x4 net/built-in.o
                0x00000000402b6590                arp_wait_try
 .bss.arp_wait_tx_packet_size
                0x00000000402b6594        0x4 net/built-in.o
                0x00000000402b6594                arp_wait_tx_packet_size
 .bss.net_arp_wait_packet_ip
                0x00000000402b6598        0x4 net/built-in.o
                0x00000000402b6598                net_arp_wait_packet_ip
 .bss.net_arp_wait_reply_ip
                0x00000000402b659c        0x4 net/built-in.o
 .bss.bootp_ids
                0x00000000402b65a0       0x10 net/built-in.o
                0x00000000402b65a0                bootp_ids
 .bss.bootp_num_ids
                0x00000000402b65b0        0x4 net/built-in.o
                0x00000000402b65b0                bootp_num_ids
 *fill*         0x00000000402b65b4        0x4 
 .bss.bootp_start
                0x00000000402b65b8        0x8 net/built-in.o
                0x00000000402b65b8                bootp_start
 .bss.bootp_timeout
                0x00000000402b65c0        0x8 net/built-in.o
                0x00000000402b65c0                bootp_timeout
 .bss.bootp_try
                0x00000000402b65c8        0x4 net/built-in.o
                0x00000000402b65c8                bootp_try
 .bss.dhcp_leasetime
                0x00000000402b65cc        0x4 net/built-in.o
 .bss.dhcp_option_overload
                0x00000000402b65d0        0x1 net/built-in.o
 *fill*         0x00000000402b65d1        0x3 
 .bss.dhcp_server_ip
                0x00000000402b65d4        0x4 net/built-in.o
 .bss.dhcp_state
                0x00000000402b65d8        0x4 net/built-in.o
 .bss.net_hostname
                0x00000000402b65dc       0x20 net/built-in.o
                0x00000000402b65dc                net_hostname
 .bss.net_nis_domain
                0x00000000402b65fc       0x20 net/built-in.o
                0x00000000402b65fc                net_nis_domain
 .bss.net_root_path
                0x00000000402b661c       0x40 net/built-in.o
                0x00000000402b661c                net_root_path
 *fill*         0x00000000402b665c        0x4 
 .bss.time_taken_max
                0x00000000402b6660        0x8 net/built-in.o
 .bss.eth_errno
                0x00000000402b6668        0x4 net/built-in.o
 *fill*         0x00000000402b666c        0x4 
 .bss.act.8803  0x00000000402b6670        0x8 net/built-in.o
 .bss.env_changed_id.8804
                0x00000000402b6678        0x4 net/built-in.o
 *fill*         0x00000000402b667c        0x4 
 .bss.first_failed.8798
                0x00000000402b6680        0x8 net/built-in.o
 .bss.arp_packet_handler
                0x00000000402b6688        0x8 net/built-in.o
 .bss.net_boot_file_expected_size_in_blocks
                0x00000000402b6690        0x4 net/built-in.o
                0x00000000402b6690                net_boot_file_expected_size_in_blocks
 .bss.net_boot_file_name
                0x00000000402b6694      0x400 net/built-in.o
                0x00000000402b6694                net_boot_file_name
 .bss.net_boot_file_name_explicit
                0x00000000402b6a94        0x1 net/built-in.o
                0x00000000402b6a94                net_boot_file_name_explicit
 *fill*         0x00000000402b6a95        0x3 
 .bss.net_boot_file_size
                0x00000000402b6a98        0x4 net/built-in.o
                0x00000000402b6a98                net_boot_file_size
 .bss.net_dev_exists
                0x00000000402b6a9c        0x4 net/built-in.o
 .bss.net_dns_server
                0x00000000402b6aa0        0x4 net/built-in.o
                0x00000000402b6aa0                net_dns_server
 .bss.net_ethaddr
                0x00000000402b6aa4        0x6 net/built-in.o
                0x00000000402b6aa4                net_ethaddr
 *fill*         0x00000000402b6aaa        0x2 
 .bss.net_gateway
                0x00000000402b6aac        0x4 net/built-in.o
                0x00000000402b6aac                net_gateway
 .bss.net_ip    0x00000000402b6ab0        0x4 net/built-in.o
                0x00000000402b6ab0                net_ip
 .bss.net_ip_id
                0x00000000402b6ab4        0x4 net/built-in.o
 .bss.net_netmask
                0x00000000402b6ab8        0x4 net/built-in.o
                0x00000000402b6ab8                net_netmask
 .bss.net_pkt_buf
                0x00000000402b6abc     0x1e40 net/built-in.o
 .bss.net_restart_wrap
                0x00000000402b88fc        0x4 net/built-in.o
                0x00000000402b88fc                net_restart_wrap
 .bss.net_restarted
                0x00000000402b8900        0x4 net/built-in.o
 *fill*         0x00000000402b8904        0x4 
 .bss.net_rx_packet
                0x00000000402b8908        0x8 net/built-in.o
                0x00000000402b8908                net_rx_packet
 .bss.net_rx_packet_len
                0x00000000402b8910        0x4 net/built-in.o
                0x00000000402b8910                net_rx_packet_len
 *fill*         0x00000000402b8914        0x4 
 .bss.net_rx_packets
                0x00000000402b8918       0x20 net/built-in.o
                0x00000000402b8918                net_rx_packets
 .bss.net_server_ethaddr
                0x00000000402b8938        0x6 net/built-in.o
                0x00000000402b8938                net_server_ethaddr
 *fill*         0x00000000402b893e        0x2 
 .bss.net_server_ip
                0x00000000402b8940        0x4 net/built-in.o
                0x00000000402b8940                net_server_ip
 .bss.net_state
                0x00000000402b8944        0x4 net/built-in.o
                0x00000000402b8944                net_state
 .bss.net_try_count
                0x00000000402b8948        0x4 net/built-in.o
 *fill*         0x00000000402b894c        0x4 
 .bss.net_tx_packet
                0x00000000402b8950        0x8 net/built-in.o
                0x00000000402b8950                net_tx_packet
 .bss.push_packet
                0x00000000402b8958        0x8 net/built-in.o
                0x00000000402b8958                push_packet
 .bss.time_delta
                0x00000000402b8960        0x8 net/built-in.o
 .bss.time_handler
                0x00000000402b8968        0x8 net/built-in.o
 .bss.time_start
                0x00000000402b8970       0x10 net/built-in.o
 .bss.udp_packet_handler
                0x00000000402b8980        0x8 net/built-in.o
 .bss.dirfh     0x00000000402b8988       0x20 net/built-in.o
 .bss.filefh    0x00000000402b89a8       0x40 net/built-in.o
 .bss.filefh3_length
                0x00000000402b89e8        0x4 net/built-in.o
 .bss.fs_mounted
                0x00000000402b89ec        0x4 net/built-in.o
 .bss.nfs_download_state
                0x00000000402b89f0        0x4 net/built-in.o
 *fill*         0x00000000402b89f4        0x4 
 .bss.nfs_filename
                0x00000000402b89f8        0x8 net/built-in.o
 .bss.nfs_len   0x00000000402b8a00        0x4 net/built-in.o
 .bss.nfs_our_port
                0x00000000402b8a04        0x4 net/built-in.o
 .bss.nfs_path  0x00000000402b8a08        0x8 net/built-in.o
 .bss.nfs_path_buff
                0x00000000402b8a10      0x800 net/built-in.o
 .bss.nfs_server_ip
                0x00000000402b9210        0x4 net/built-in.o
 .bss.nfs_server_mount_port
                0x00000000402b9214        0x4 net/built-in.o
 .bss.nfs_server_port
                0x00000000402b9218        0x4 net/built-in.o
 .bss.nfs_state
                0x00000000402b921c        0x4 net/built-in.o
 .bss.nfs_timeout_count
                0x00000000402b9220        0x4 net/built-in.o
 *fill*         0x00000000402b9224        0x4 
 .bss.rpc_id    0x00000000402b9228        0x8 net/built-in.o
 .bss.net_ping_ip
                0x00000000402b9230        0x4 net/built-in.o
                0x00000000402b9230                net_ping_ip
 .bss.ping_seq_number
                0x00000000402b9234        0x2 net/built-in.o
 .bss.default_filename
                0x00000000402b9236        0xd net/built-in.o
 *fill*         0x00000000402b9243        0x5 
 .bss.tftp_block_wrap
                0x00000000402b9248        0x8 net/built-in.o
 .bss.tftp_block_wrap_offset
                0x00000000402b9250        0x8 net/built-in.o
 .bss.tftp_cur_block
                0x00000000402b9258        0x8 net/built-in.o
 .bss.tftp_filename
                0x00000000402b9260       0x80 net/built-in.o
 .bss.tftp_load_addr
                0x00000000402b92e0        0x8 net/built-in.o
 .bss.tftp_load_size
                0x00000000402b92e8        0x8 net/built-in.o
 .bss.tftp_our_port
                0x00000000402b92f0        0x4 net/built-in.o
 *fill*         0x00000000402b92f4        0x4 
 .bss.tftp_prev_block
                0x00000000402b92f8        0x8 net/built-in.o
 .bss.tftp_remote_ip
                0x00000000402b9300        0x4 net/built-in.o
 .bss.tftp_remote_port
                0x00000000402b9304        0x4 net/built-in.o
 .bss.tftp_state
                0x00000000402b9308        0x4 net/built-in.o
 .bss.timeout_count
                0x00000000402b930c        0x4 net/built-in.o
                0x00000000402b9310                . = ALIGN (0x8)

.dynbss         0x00000000402b9310        0x0
 .dynbss        0x00000000402b9310        0x0 arch/arm/cpu/armv8/start.o

.bss_end        0x00000000402b9310        0x0
 *(.__bss_end)
 .__bss_end     0x00000000402b9310        0x0 arch/arm/lib/built-in.o
                0x00000000402b9310                __bss_end

/DISCARD/
 *(.dynsym)
 *(.dynstr*)
 *(.dynamic*)
 *(.plt*)
 *(.interp*)
 *(.gnu*)
LOAD arch/arm/cpu/armv8/start.o
START GROUP
LOAD arch/arm/cpu/built-in.o
LOAD arch/arm/cpu/armv8/built-in.o
LOAD arch/arm/lib/built-in.o
LOAD arch/arm/mach-imx/built-in.o
LOAD board/freescale/common/built-in.o
LOAD board/freescale/imx8mq_evk/built-in.o
LOAD cmd/built-in.o
LOAD common/built-in.o
LOAD disk/built-in.o
LOAD drivers/built-in.o
LOAD drivers/dma/built-in.o
LOAD drivers/gpio/built-in.o
LOAD drivers/i2c/built-in.o
LOAD drivers/mtd/built-in.o
LOAD drivers/mtd/onenand/built-in.o
LOAD drivers/mtd/spi/built-in.o
LOAD drivers/net/built-in.o
LOAD drivers/net/phy/built-in.o
LOAD drivers/power/built-in.o
LOAD drivers/power/battery/built-in.o
LOAD drivers/power/domain/built-in.o
LOAD drivers/power/fuel_gauge/built-in.o
LOAD drivers/power/mfd/built-in.o
LOAD drivers/power/pmic/built-in.o
LOAD drivers/power/regulator/built-in.o
LOAD drivers/serial/built-in.o
LOAD drivers/spi/built-in.o
LOAD drivers/usb/cdns3/built-in.o
LOAD drivers/usb/common/built-in.o
LOAD drivers/usb/dwc3/built-in.o
LOAD drivers/usb/emul/built-in.o
LOAD drivers/usb/eth/built-in.o
LOAD drivers/usb/gadget/built-in.o
LOAD drivers/usb/gadget/udc/built-in.o
LOAD drivers/usb/host/built-in.o
LOAD drivers/usb/musb-new/built-in.o
LOAD drivers/usb/musb/built-in.o
LOAD drivers/usb/phy/built-in.o
LOAD drivers/usb/ulpi/built-in.o
LOAD env/built-in.o
LOAD fs/built-in.o
LOAD lib/built-in.o
LOAD net/built-in.o
END GROUP
LOAD /home/duxy/opt_warrior/sysroots/aarch64-poky-linux/usr/lib/aarch64-poky-linux/8.3.0/libgcc.a
OUTPUT(u-boot elf64-littleaarch64)

.debug_line     0x0000000000000000    0x9e897
 .debug_line    0x0000000000000000       0x8b arch/arm/cpu/armv8/start.o
 .debug_line    0x000000000000008b     0x1f48 arch/arm/cpu/armv8/built-in.o
 .debug_line    0x0000000000001fd3     0x188e arch/arm/lib/built-in.o
 .debug_line    0x0000000000003861     0x3bde arch/arm/mach-imx/built-in.o
 .debug_line    0x000000000000743f      0x22e board/freescale/common/built-in.o
 .debug_line    0x000000000000766d      0x655 board/freescale/imx8mq_evk/built-in.o
 .debug_line    0x0000000000007cc2    0x1265e cmd/built-in.o
 .debug_line    0x000000000001a320    0x14f8a common/built-in.o
 .debug_line    0x000000000002f2aa     0x270c disk/built-in.o
 .debug_line    0x00000000000319b6    0x14ee3 drivers/built-in.o
 .debug_line    0x0000000000046899     0x1843 drivers/gpio/built-in.o
 .debug_line    0x00000000000480dc     0x19fd drivers/i2c/built-in.o
 .debug_line    0x0000000000049ad9     0x1ad6 drivers/mtd/built-in.o
 .debug_line    0x000000000004b5af     0x27dd drivers/mtd/spi/built-in.o
 .debug_line    0x000000000004dd8c     0x12e4 drivers/net/built-in.o
 .debug_line    0x000000000004f070     0x1972 drivers/net/phy/built-in.o
 .debug_line    0x00000000000509e2      0x49c drivers/power/pmic/built-in.o
 .debug_line    0x0000000000050e7e     0x1501 drivers/power/regulator/built-in.o
 .debug_line    0x000000000005237f      0xb67 drivers/serial/built-in.o
 .debug_line    0x0000000000052ee6     0x26ea drivers/spi/built-in.o
 .debug_line    0x00000000000555d0      0x2d6 drivers/usb/common/built-in.o
 .debug_line    0x00000000000558a6     0x56c6 drivers/usb/dwc3/built-in.o
 .debug_line    0x000000000005af6c     0x7714 drivers/usb/gadget/built-in.o
 .debug_line    0x0000000000062680      0x9d0 drivers/usb/gadget/udc/built-in.o
 .debug_line    0x0000000000063050     0x4f3d drivers/usb/host/built-in.o
 .debug_line    0x0000000000067f8d     0x2038 env/built-in.o
 .debug_line    0x0000000000069fc5     0xa971 fs/built-in.o
 .debug_line    0x0000000000074936    0x23ff7 lib/built-in.o
 .debug_line    0x000000000009892d     0x5f6a net/built-in.o

.debug_info     0x0000000000000000   0x2ac7f5
 .debug_info    0x0000000000000000       0x2e arch/arm/cpu/armv8/start.o
 .debug_info    0x000000000000002e     0x71e3 arch/arm/cpu/armv8/built-in.o
 .debug_info    0x0000000000007211     0xbbf0 arch/arm/lib/built-in.o
 .debug_info    0x0000000000012e01    0x149ff arch/arm/mach-imx/built-in.o
 .debug_info    0x0000000000027800      0xd8a board/freescale/common/built-in.o
 .debug_info    0x000000000002858a     0x3f01 board/freescale/imx8mq_evk/built-in.o
 .debug_info    0x000000000002c48b    0x5e419 cmd/built-in.o
 .debug_info    0x000000000008a8a4    0x51885 common/built-in.o
 .debug_info    0x00000000000dc129     0x7ffe disk/built-in.o
 .debug_info    0x00000000000e4127    0x5b258 drivers/built-in.o
 .debug_info    0x000000000013f37f     0x6392 drivers/gpio/built-in.o
 .debug_info    0x0000000000145711     0x6dfd drivers/i2c/built-in.o
 .debug_info    0x000000000014c50e     0x685f drivers/mtd/built-in.o
 .debug_info    0x0000000000152d6d     0xc45e drivers/mtd/spi/built-in.o
 .debug_info    0x000000000015f1cb     0x567d drivers/net/built-in.o
 .debug_info    0x0000000000164848     0x62bf drivers/net/phy/built-in.o
 .debug_info    0x000000000016ab07     0x1c55 drivers/power/pmic/built-in.o
 .debug_info    0x000000000016c75c     0x6bfb drivers/power/regulator/built-in.o
 .debug_info    0x0000000000173357     0x3bcc drivers/serial/built-in.o
 .debug_info    0x0000000000176f23     0xa854 drivers/spi/built-in.o
 .debug_info    0x0000000000181777     0x1326 drivers/usb/common/built-in.o
 .debug_info    0x0000000000182a9d    0x13e3e drivers/usb/dwc3/built-in.o
 .debug_info    0x00000000001968db    0x178c7 drivers/usb/gadget/built-in.o
 .debug_info    0x00000000001ae1a2     0x40e0 drivers/usb/gadget/udc/built-in.o
 .debug_info    0x00000000001b2282    0x17b6e drivers/usb/host/built-in.o
 .debug_info    0x00000000001c9df0     0x9f63 env/built-in.o
 .debug_info    0x00000000001d3d53    0x1f7dc fs/built-in.o
 .debug_info    0x00000000001f352f    0xa0bcf lib/built-in.o
 .debug_info    0x00000000002940fe    0x186f7 net/built-in.o

.debug_abbrev   0x0000000000000000    0x4d331
 .debug_abbrev  0x0000000000000000       0x14 arch/arm/cpu/armv8/start.o
 .debug_abbrev  0x0000000000000014     0x128e arch/arm/cpu/armv8/built-in.o
 .debug_abbrev  0x00000000000012a2     0x1914 arch/arm/lib/built-in.o
 .debug_abbrev  0x0000000000002bb6     0x26d5 arch/arm/mach-imx/built-in.o
 .debug_abbrev  0x000000000000528b      0x2ed board/freescale/common/built-in.o
 .debug_abbrev  0x0000000000005578      0x507 board/freescale/imx8mq_evk/built-in.o
 .debug_abbrev  0x0000000000005a7f     0xc1a8 cmd/built-in.o
 .debug_abbrev  0x0000000000011c27     0x956e common/built-in.o
 .debug_abbrev  0x000000000001b195     0x1145 disk/built-in.o
 .debug_abbrev  0x000000000001c2da     0xb48f drivers/built-in.o
 .debug_abbrev  0x0000000000027769      0xb2a drivers/gpio/built-in.o
 .debug_abbrev  0x0000000000028293      0xcc2 drivers/i2c/built-in.o
 .debug_abbrev  0x0000000000028f55      0xb46 drivers/mtd/built-in.o
 .debug_abbrev  0x0000000000029a9b     0x1035 drivers/mtd/spi/built-in.o
 .debug_abbrev  0x000000000002aad0      0x6e8 drivers/net/built-in.o
 .debug_abbrev  0x000000000002b1b8      0xa3b drivers/net/phy/built-in.o
 .debug_abbrev  0x000000000002bbf3      0x37d drivers/power/pmic/built-in.o
 .debug_abbrev  0x000000000002bf70      0xd90 drivers/power/regulator/built-in.o
 .debug_abbrev  0x000000000002cd00      0x9a1 drivers/serial/built-in.o
 .debug_abbrev  0x000000000002d6a1      0xfe9 drivers/spi/built-in.o
 .debug_abbrev  0x000000000002e68a      0x2e3 drivers/usb/common/built-in.o
 .debug_abbrev  0x000000000002e96d     0x14c8 drivers/usb/dwc3/built-in.o
 .debug_abbrev  0x000000000002fe35     0x219f drivers/usb/gadget/built-in.o
 .debug_abbrev  0x0000000000031fd4      0x895 drivers/usb/gadget/udc/built-in.o
 .debug_abbrev  0x0000000000032869     0x23da drivers/usb/host/built-in.o
 .debug_abbrev  0x0000000000034c43     0x1a92 env/built-in.o
 .debug_abbrev  0x00000000000366d5     0x2cbe fs/built-in.o
 .debug_abbrev  0x0000000000039393    0x112a5 lib/built-in.o
 .debug_abbrev  0x000000000004a638     0x2cf9 net/built-in.o

.debug_aranges  0x0000000000000000     0xd190
 .debug_aranges
                0x0000000000000000       0x30 arch/arm/cpu/armv8/start.o
 .debug_aranges
                0x0000000000000030      0x480 arch/arm/cpu/armv8/built-in.o
 .debug_aranges
                0x00000000000004b0      0x3c0 arch/arm/lib/built-in.o
 .debug_aranges
                0x0000000000000870      0x6b0 arch/arm/mach-imx/built-in.o
 .debug_aranges
                0x0000000000000f20       0x40 board/freescale/common/built-in.o
 .debug_aranges
                0x0000000000000f60       0xb0 board/freescale/imx8mq_evk/built-in.o
 .debug_aranges
                0x0000000000001010     0x1410 cmd/built-in.o
 .debug_aranges
                0x0000000000002420     0x1e60 common/built-in.o
 .debug_aranges
                0x0000000000004280      0x2b0 disk/built-in.o
 .debug_aranges
                0x0000000000004530     0x1d50 drivers/built-in.o
 .debug_aranges
                0x0000000000006280      0x360 drivers/gpio/built-in.o
 .debug_aranges
                0x00000000000065e0      0x250 drivers/i2c/built-in.o
 .debug_aranges
                0x0000000000006830      0x350 drivers/mtd/built-in.o
 .debug_aranges
                0x0000000000006b80      0x2e0 drivers/mtd/spi/built-in.o
 .debug_aranges
                0x0000000000006e60      0x130 drivers/net/built-in.o
 .debug_aranges
                0x0000000000006f90      0x1e0 drivers/net/phy/built-in.o
 .debug_aranges
                0x0000000000007170       0xa0 drivers/power/pmic/built-in.o
 .debug_aranges
                0x0000000000007210      0x230 drivers/power/regulator/built-in.o
 .debug_aranges
                0x0000000000007440      0x200 drivers/serial/built-in.o
 .debug_aranges
                0x0000000000007640      0x2b0 drivers/spi/built-in.o
 .debug_aranges
                0x00000000000078f0       0x40 drivers/usb/common/built-in.o
 .debug_aranges
                0x0000000000007930      0x410 drivers/usb/dwc3/built-in.o
 .debug_aranges
                0x0000000000007d40      0x630 drivers/usb/gadget/built-in.o
 .debug_aranges
                0x0000000000008370      0x110 drivers/usb/gadget/udc/built-in.o
 .debug_aranges
                0x0000000000008480      0x550 drivers/usb/host/built-in.o
 .debug_aranges
                0x00000000000089d0      0x320 env/built-in.o
 .debug_aranges
                0x0000000000008cf0      0x9e0 fs/built-in.o
 .debug_aranges
                0x00000000000096d0     0x32d0 lib/built-in.o
 .debug_aranges
                0x000000000000c9a0      0x7f0 net/built-in.o

.debug_str      0x0000000000000000    0x2b871
 .debug_str     0x0000000000000000       0x50 arch/arm/cpu/armv8/start.o
 .debug_str     0x0000000000000050     0x1588 arch/arm/cpu/armv8/built-in.o
                                       0x527b (size before relaxing)
 .debug_str     0x00000000000015d8     0x2271 arch/arm/lib/built-in.o
                                       0xa2a3 (size before relaxing)
 .debug_str     0x0000000000003849     0x31b0 arch/arm/mach-imx/built-in.o
                                      0x10cd0 (size before relaxing)
 .debug_str     0x00000000000069f9       0x8b board/freescale/common/built-in.o
                                        0xa9e (size before relaxing)
 .debug_str     0x0000000000006a84     0x46c1 board/freescale/imx8mq_evk/built-in.o
                                       0x5d06 (size before relaxing)
 .debug_str     0x000000000000b145     0x58e3 cmd/built-in.o
                                      0x40945 (size before relaxing)
 .debug_str     0x0000000000010a28     0x4407 common/built-in.o
                                      0x32ebe (size before relaxing)
 .debug_str     0x0000000000014e2f      0x6f1 disk/built-in.o
                                       0x3e51 (size before relaxing)
 .debug_str     0x0000000000015520     0x45eb drivers/built-in.o
                                      0x38c76 (size before relaxing)
 .debug_str     0x0000000000019b0b      0x536 drivers/gpio/built-in.o
                                       0x33d5 (size before relaxing)
 .debug_str     0x000000000001a041      0x4c0 drivers/i2c/built-in.o
                                       0x3483 (size before relaxing)
 .debug_str     0x000000000001a501      0xb85 drivers/mtd/built-in.o
                                       0x395c (size before relaxing)
 .debug_str     0x000000000001b086      0xab7 drivers/mtd/spi/built-in.o
                                       0x742d (size before relaxing)
 .debug_str     0x000000000001bb3d      0x81f drivers/net/built-in.o
                                       0x2422 (size before relaxing)
 .debug_str     0x000000000001c35c      0x26f drivers/net/phy/built-in.o
                                       0x33ad (size before relaxing)
 .debug_str     0x000000000001c5cb       0xca drivers/power/pmic/built-in.o
                                       0x1589 (size before relaxing)
 .debug_str     0x000000000001c695      0x485 drivers/power/regulator/built-in.o
                                       0x4a73 (size before relaxing)
 .debug_str     0x000000000001cb1a      0x223 drivers/serial/built-in.o
                                       0x2b1e (size before relaxing)
 .debug_str     0x000000000001cd3d      0x67e drivers/spi/built-in.o
                                       0x4b42 (size before relaxing)
 .debug_str     0x000000000001d3bb       0x5b drivers/usb/common/built-in.o
                                       0x1298 (size before relaxing)
 .debug_str     0x000000000001d416     0x1736 drivers/usb/dwc3/built-in.o
                                       0x6d1f (size before relaxing)
 .debug_str     0x000000000001eb4c     0x1a21 drivers/usb/gadget/built-in.o
                                       0xa5ec (size before relaxing)
 .debug_str     0x000000000002056d      0x12a drivers/usb/gadget/udc/built-in.o
                                       0x30d1 (size before relaxing)
 .debug_str     0x0000000000020697     0x1733 drivers/usb/host/built-in.o
                                       0xc864 (size before relaxing)
 .debug_str     0x0000000000021dca      0x7a8 env/built-in.o
                                       0x7c9f (size before relaxing)
 .debug_str     0x0000000000022572     0x1de7 fs/built-in.o
                                       0xe338 (size before relaxing)
 .debug_str     0x0000000000024359     0x6171 lib/built-in.o
                                      0x5f2c1 (size before relaxing)
 .debug_str     0x000000000002a4ca     0x13a7 net/built-in.o
                                      0x109bf (size before relaxing)

.comment        0x0000000000000000       0x11
 .comment       0x0000000000000000       0x11 arch/arm/cpu/armv8/built-in.o
                                         0x6c (size before relaxing)
 .comment       0x0000000000000011       0xa2 arch/arm/lib/built-in.o
 .comment       0x0000000000000011       0xc6 arch/arm/mach-imx/built-in.o
 .comment       0x0000000000000011       0x12 board/freescale/common/built-in.o
 .comment       0x0000000000000011       0x12 board/freescale/imx8mq_evk/built-in.o
 .comment       0x0000000000000011      0x360 cmd/built-in.o
 .comment       0x0000000000000011      0x240 common/built-in.o
 .comment       0x0000000000000011       0x36 disk/built-in.o
 .comment       0x0000000000000011      0x2d0 drivers/built-in.o
 .comment       0x0000000000000011       0x24 drivers/gpio/built-in.o
 .comment       0x0000000000000011       0x24 drivers/i2c/built-in.o
 .comment       0x0000000000000011       0x24 drivers/mtd/built-in.o
 .comment       0x0000000000000011       0x48 drivers/mtd/spi/built-in.o
 .comment       0x0000000000000011       0x12 drivers/net/built-in.o
 .comment       0x0000000000000011       0x24 drivers/net/phy/built-in.o
 .comment       0x0000000000000011       0x12 drivers/power/pmic/built-in.o
 .comment       0x0000000000000011       0x36 drivers/power/regulator/built-in.o
 .comment       0x0000000000000011       0x24 drivers/serial/built-in.o
 .comment       0x0000000000000011       0x36 drivers/spi/built-in.o
 .comment       0x0000000000000011       0x12 drivers/usb/common/built-in.o
 .comment       0x0000000000000011       0x36 drivers/usb/dwc3/built-in.o
 .comment       0x0000000000000011       0x6c drivers/usb/gadget/built-in.o
 .comment       0x0000000000000011       0x24 drivers/usb/gadget/udc/built-in.o
 .comment       0x0000000000000011       0x6c drivers/usb/host/built-in.o
 .comment       0x0000000000000011       0x6c env/built-in.o
 .comment       0x0000000000000011       0xa2 fs/built-in.o
 .comment       0x0000000000000011      0x522 lib/built-in.o
 .comment       0x0000000000000011       0xa2 net/built-in.o

.note.GNU-stack
                0x0000000000000000        0x0
 .note.GNU-stack
                0x0000000000000000        0x0 arch/arm/cpu/armv8/built-in.o
 .note.GNU-stack
                0x0000000000000000        0x0 arch/arm/lib/built-in.o
 .note.GNU-stack
                0x0000000000000000        0x0 arch/arm/mach-imx/built-in.o
 .note.GNU-stack
                0x0000000000000000        0x0 board/freescale/common/built-in.o
 .note.GNU-stack
                0x0000000000000000        0x0 board/freescale/imx8mq_evk/built-in.o
 .note.GNU-stack
                0x0000000000000000        0x0 cmd/built-in.o
 .note.GNU-stack
                0x0000000000000000        0x0 common/built-in.o
 .note.GNU-stack
                0x0000000000000000        0x0 disk/built-in.o
 .note.GNU-stack
                0x0000000000000000        0x0 drivers/built-in.o
 .note.GNU-stack
                0x0000000000000000        0x0 drivers/gpio/built-in.o
 .note.GNU-stack
                0x0000000000000000        0x0 drivers/i2c/built-in.o
 .note.GNU-stack
                0x0000000000000000        0x0 drivers/mtd/built-in.o
 .note.GNU-stack
                0x0000000000000000        0x0 drivers/mtd/spi/built-in.o
 .note.GNU-stack
                0x0000000000000000        0x0 drivers/net/built-in.o
 .note.GNU-stack
                0x0000000000000000        0x0 drivers/net/phy/built-in.o
 .note.GNU-stack
                0x0000000000000000        0x0 drivers/power/pmic/built-in.o
 .note.GNU-stack
                0x0000000000000000        0x0 drivers/power/regulator/built-in.o
 .note.GNU-stack
                0x0000000000000000        0x0 drivers/serial/built-in.o
 .note.GNU-stack
                0x0000000000000000        0x0 drivers/spi/built-in.o
 .note.GNU-stack
                0x0000000000000000        0x0 drivers/usb/common/built-in.o
 .note.GNU-stack
                0x0000000000000000        0x0 drivers/usb/dwc3/built-in.o
 .note.GNU-stack
                0x0000000000000000        0x0 drivers/usb/gadget/built-in.o
 .note.GNU-stack
                0x0000000000000000        0x0 drivers/usb/gadget/udc/built-in.o
 .note.GNU-stack
                0x0000000000000000        0x0 drivers/usb/host/built-in.o
 .note.GNU-stack
                0x0000000000000000        0x0 env/built-in.o
 .note.GNU-stack
                0x0000000000000000        0x0 fs/built-in.o
 .note.GNU-stack
                0x0000000000000000        0x0 lib/built-in.o
 .note.GNU-stack
                0x0000000000000000        0x0 net/built-in.o

.debug_loc      0x0000000000000000   0x19829f
 .debug_loc     0x0000000000000000     0x2dee arch/arm/cpu/armv8/built-in.o
 .debug_loc     0x0000000000002dee     0x146c arch/arm/lib/built-in.o
 .debug_loc     0x000000000000425a     0x5f7f arch/arm/mach-imx/built-in.o
 .debug_loc     0x000000000000a1d9       0x5f board/freescale/common/built-in.o
 .debug_loc     0x000000000000a238      0x70c board/freescale/imx8mq_evk/built-in.o
 .debug_loc     0x000000000000a944    0x2d427 cmd/built-in.o
 .debug_loc     0x0000000000037d6b    0x33dab common/built-in.o
 .debug_loc     0x000000000006bb16     0x626f disk/built-in.o
 .debug_loc     0x0000000000071d85    0x2d79f drivers/built-in.o
 .debug_loc     0x000000000009f524     0x49c1 drivers/gpio/built-in.o
 .debug_loc     0x00000000000a3ee5     0x4f4b drivers/i2c/built-in.o
 .debug_loc     0x00000000000a8e30     0x5974 drivers/mtd/built-in.o
 .debug_loc     0x00000000000ae7a4     0x66e6 drivers/mtd/spi/built-in.o
 .debug_loc     0x00000000000b4e8a     0x3744 drivers/net/built-in.o
 .debug_loc     0x00000000000b85ce     0x4649 drivers/net/phy/built-in.o
 .debug_loc     0x00000000000bcc17      0xc1f drivers/power/pmic/built-in.o
 .debug_loc     0x00000000000bd836     0x2e26 drivers/power/regulator/built-in.o
 .debug_loc     0x00000000000c065c      0xe5e drivers/serial/built-in.o
 .debug_loc     0x00000000000c14ba     0x84d2 drivers/spi/built-in.o
 .debug_loc     0x00000000000c998c      0x22a drivers/usb/common/built-in.o
 .debug_loc     0x00000000000c9bb6    0x11dfb drivers/usb/dwc3/built-in.o
 .debug_loc     0x00000000000db9b1    0x13362 drivers/usb/gadget/built-in.o
 .debug_loc     0x00000000000eed13      0xe75 drivers/usb/gadget/udc/built-in.o
 .debug_loc     0x00000000000efb88     0xe912 drivers/usb/host/built-in.o
 .debug_loc     0x00000000000fe49a     0x4020 env/built-in.o
 .debug_loc     0x00000000001024ba    0x1d97c fs/built-in.o
 .debug_loc     0x000000000011fe36    0x6d28a lib/built-in.o
 .debug_loc     0x000000000018d0c0     0xb1df net/built-in.o

.debug_ranges   0x0000000000000000    0x30250
 .debug_ranges  0x0000000000000000      0xac0 arch/arm/cpu/armv8/built-in.o
 .debug_ranges  0x0000000000000ac0      0x370 arch/arm/lib/built-in.o
 .debug_ranges  0x0000000000000e30      0x910 arch/arm/mach-imx/built-in.o
 .debug_ranges  0x0000000000001740       0x30 board/freescale/common/built-in.o
 .debug_ranges  0x0000000000001770      0x120 board/freescale/imx8mq_evk/built-in.o
 .debug_ranges  0x0000000000001890     0x4e00 cmd/built-in.o
 .debug_ranges  0x0000000000006690     0x60c0 common/built-in.o
 .debug_ranges  0x000000000000c750      0xda0 disk/built-in.o
 .debug_ranges  0x000000000000d4f0     0x6a80 drivers/built-in.o
 .debug_ranges  0x0000000000013f70      0x5a0 drivers/gpio/built-in.o
 .debug_ranges  0x0000000000014510      0x8d0 drivers/i2c/built-in.o
 .debug_ranges  0x0000000000014de0      0x740 drivers/mtd/built-in.o
 .debug_ranges  0x0000000000015520      0xec0 drivers/mtd/spi/built-in.o
 .debug_ranges  0x00000000000163e0      0x950 drivers/net/built-in.o
 .debug_ranges  0x0000000000016d30      0xa40 drivers/net/phy/built-in.o
 .debug_ranges  0x0000000000017770       0x90 drivers/power/pmic/built-in.o
 .debug_ranges  0x0000000000017800      0x340 drivers/power/regulator/built-in.o
 .debug_ranges  0x0000000000017b40      0x3e0 drivers/serial/built-in.o
 .debug_ranges  0x0000000000017f20      0xe70 drivers/spi/built-in.o
 .debug_ranges  0x0000000000018d90       0x30 drivers/usb/common/built-in.o
 .debug_ranges  0x0000000000018dc0     0x2160 drivers/usb/dwc3/built-in.o
 .debug_ranges  0x000000000001af20     0x3e30 drivers/usb/gadget/built-in.o
 .debug_ranges  0x000000000001ed50      0x240 drivers/usb/gadget/udc/built-in.o
 .debug_ranges  0x000000000001ef90     0x2800 drivers/usb/host/built-in.o
 .debug_ranges  0x0000000000021790      0x8d0 env/built-in.o
 .debug_ranges  0x0000000000022060     0x2c20 fs/built-in.o
 .debug_ranges  0x0000000000024c80     0x99d0 lib/built-in.o
 .debug_ranges  0x000000000002e650     0x1c00 net/built-in.o
